
main.elf:     file format elf32-littleriscv


Disassembly of section .text:

00000000 <_isr_handler>:
       0:	0080006f          	j	8 <_isr_routine>
       4:	1440006f          	j	148 <_start>

00000008 <_isr_routine>:
       8:	f8010113          	addi	sp,sp,-128
       c:	00112023          	sw	ra,0(sp)
      10:	00312423          	sw	gp,8(sp)
      14:	00412623          	sw	tp,12(sp)
      18:	00512823          	sw	t0,16(sp)
      1c:	00612a23          	sw	t1,20(sp)
      20:	00712c23          	sw	t2,24(sp)
      24:	00812e23          	sw	s0,28(sp)
      28:	02912023          	sw	s1,32(sp)
      2c:	02a12223          	sw	a0,36(sp)
      30:	02b12423          	sw	a1,40(sp)
      34:	02c12623          	sw	a2,44(sp)
      38:	02d12823          	sw	a3,48(sp)
      3c:	02e12a23          	sw	a4,52(sp)
      40:	02f12c23          	sw	a5,56(sp)
      44:	03012e23          	sw	a6,60(sp)
      48:	05112023          	sw	a7,64(sp)
      4c:	05212223          	sw	s2,68(sp)
      50:	05312423          	sw	s3,72(sp)
      54:	05412623          	sw	s4,76(sp)
      58:	05512823          	sw	s5,80(sp)
      5c:	05612a23          	sw	s6,84(sp)
      60:	05712c23          	sw	s7,88(sp)
      64:	05812e23          	sw	s8,92(sp)
      68:	07912023          	sw	s9,96(sp)
      6c:	07a12223          	sw	s10,100(sp)
      70:	07b12423          	sw	s11,104(sp)
      74:	07c12623          	sw	t3,108(sp)
      78:	07d12823          	sw	t4,112(sp)
      7c:	07e12a23          	sw	t5,116(sp)
      80:	07f12c23          	sw	t6,120(sp)
      84:	342022f3          	csrr	t0,mcause
      88:	80000337          	lui	t1,0x80000
      8c:	02536463          	bltu	t1,t0,b4 <external_irq>
      90:	00028833          	add	a6,t0,zero
      94:	00b00313          	li	t1,11
      98:	00628463          	beq	t0,t1,a0 <skip_init_args>
      9c:	34102573          	csrr	a0,mepc

000000a0 <skip_init_args>:
      a0:	3b0000ef          	jal	450 <handle_exception>
      a4:	341022f3          	csrr	t0,mepc
      a8:	00428293          	addi	t0,t0,4
      ac:	34129073          	csrw	mepc,t0
      b0:	0180006f          	j	c8 <restore>

000000b4 <external_irq>:
      b4:	800002b7          	lui	t0,0x80000
      b8:	fff28293          	addi	t0,t0,-1 # 7fffffff <_stack_end+0x7fefdbbb>
      bc:	34202373          	csrr	t1,mcause
      c0:	0062f533          	and	a0,t0,t1
      c4:	07d010ef          	jal	1940 <handle_interrupt>

000000c8 <restore>:
      c8:	00012083          	lw	ra,0(sp)
      cc:	00812183          	lw	gp,8(sp)
      d0:	00c12203          	lw	tp,12(sp)
      d4:	01012283          	lw	t0,16(sp)
      d8:	01412303          	lw	t1,20(sp)
      dc:	01812383          	lw	t2,24(sp)
      e0:	01c12403          	lw	s0,28(sp)
      e4:	02012483          	lw	s1,32(sp)
      e8:	02412503          	lw	a0,36(sp)
      ec:	02812583          	lw	a1,40(sp)
      f0:	02c12603          	lw	a2,44(sp)
      f4:	03012683          	lw	a3,48(sp)
      f8:	03412703          	lw	a4,52(sp)
      fc:	03812783          	lw	a5,56(sp)
     100:	03c12803          	lw	a6,60(sp)
     104:	04012883          	lw	a7,64(sp)
     108:	04412903          	lw	s2,68(sp)
     10c:	04812983          	lw	s3,72(sp)
     110:	04c12a03          	lw	s4,76(sp)
     114:	05012a83          	lw	s5,80(sp)
     118:	05412b03          	lw	s6,84(sp)
     11c:	05812b83          	lw	s7,88(sp)
     120:	05c12c03          	lw	s8,92(sp)
     124:	06012c83          	lw	s9,96(sp)
     128:	06412d03          	lw	s10,100(sp)
     12c:	06812d83          	lw	s11,104(sp)
     130:	06c12e03          	lw	t3,108(sp)
     134:	07012e83          	lw	t4,112(sp)
     138:	07412f03          	lw	t5,116(sp)
     13c:	07812f83          	lw	t6,120(sp)
     140:	08010113          	addi	sp,sp,128
     144:	30200073          	mret

00000148 <_start>:
     148:	30401073          	csrw	mie,zero
     14c:	00102117          	auipc	sp,0x102
     150:	2f810113          	addi	sp,sp,760 # 102444 <_stack_end>
     154:	00003197          	auipc	gp,0x3
     158:	9d418193          	addi	gp,gp,-1580 # 2b28 <__global_pointer>
     15c:	00002517          	auipc	a0,0x2
     160:	d1450513          	addi	a0,a0,-748 # 1e70 <welcome_msg>
     164:	00400893          	li	a7,4
     168:	00000073          	ecall
     16c:	188010ef          	jal	12f4 <main>

00000170 <loop>:
     170:	0000006f          	j	170 <loop>

00000174 <enable_interrupt>:
     174:	30486073          	csrsi	mie,16
     178:	3001e073          	csrsi	mstatus,3
     17c:	00008067          	ret

00000180 <reset_counters>:
     180:	b00022f3          	csrr	t0,mcycle
     184:	b8002373          	csrr	t1,mcycleh
     188:	00552023          	sw	t0,0(a0)
     18c:	00652223          	sw	t1,4(a0)
     190:	b02022f3          	csrr	t0,minstret
     194:	b8202373          	csrr	t1,minstreth
     198:	00552423          	sw	t0,8(a0)
     19c:	00652623          	sw	t1,12(a0)
     1a0:	b04022f3          	csrr	t0,mhpmcounter4
     1a4:	00552823          	sw	t0,16(a0)
     1a8:	b05022f3          	csrr	t0,mhpmcounter5
     1ac:	00552a23          	sw	t0,20(a0)
     1b0:	b06022f3          	csrr	t0,mhpmcounter6
     1b4:	00552c23          	sw	t0,24(a0)
     1b8:	b07022f3          	csrr	t0,mhpmcounter7
     1bc:	00552e23          	sw	t0,28(a0)
     1c0:	b08022f3          	csrr	t0,mhpmcounter8
     1c4:	02552023          	sw	t0,32(a0)
     1c8:	b09022f3          	csrr	t0,mhpmcounter9
     1cc:	02552223          	sw	t0,36(a0)
     1d0:	00008067          	ret

000001d4 <read_counters>:
     1d4:	b00022f3          	csrr	t0,mcycle
     1d8:	b8002373          	csrr	t1,mcycleh
     1dc:	00552023          	sw	t0,0(a0)
     1e0:	00652223          	sw	t1,4(a0)
     1e4:	b02022f3          	csrr	t0,minstret
     1e8:	b8202373          	csrr	t1,minstreth
     1ec:	00552423          	sw	t0,8(a0)
     1f0:	00652623          	sw	t1,12(a0)
     1f4:	b04022f3          	csrr	t0,mhpmcounter4
     1f8:	00552823          	sw	t0,16(a0)
     1fc:	b05022f3          	csrr	t0,mhpmcounter5
     200:	00552a23          	sw	t0,20(a0)
     204:	b06022f3          	csrr	t0,mhpmcounter6
     208:	00552c23          	sw	t0,24(a0)
     20c:	b07022f3          	csrr	t0,mhpmcounter7
     210:	00552e23          	sw	t0,28(a0)
     214:	b08022f3          	csrr	t0,mhpmcounter8
     218:	02552023          	sw	t0,32(a0)
     21c:	b09022f3          	csrr	t0,mhpmcounter9
     220:	02552223          	sw	t0,36(a0)
     224:	00008067          	ret

00000228 <analyze>:
     228:	03000413          	li	s0,48

0000022c <loop>:
     22c:	00040513          	mv	a0,s0
     230:	00b00893          	li	a7,11
     234:	00000073          	ecall
     238:	00340413          	addi	s0,s0,3
     23c:	05a00293          	li	t0,90
     240:	fe82d6e3          	bge	t0,s0,22c <loop>
     244:	00008067          	ret

00000248 <printc>:
     248:	fe010113          	addi	sp,sp,-32
     24c:	00812e23          	sw	s0,28(sp)
     250:	02010413          	addi	s0,sp,32
     254:	00050793          	mv	a5,a0
     258:	fef407a3          	sb	a5,-17(s0)
     25c:	00000013          	nop
     260:	040007b7          	lui	a5,0x4000
     264:	04478793          	addi	a5,a5,68 # 4000044 <_stack_end+0x3efdc00>
     268:	0007a703          	lw	a4,0(a5)
     26c:	000107b7          	lui	a5,0x10
     270:	fef768e3          	bltu	a4,a5,260 <printc+0x18>
     274:	040007b7          	lui	a5,0x4000
     278:	04078793          	addi	a5,a5,64 # 4000040 <_stack_end+0x3efdbfc>
     27c:	fef44703          	lbu	a4,-17(s0)
     280:	00e7a023          	sw	a4,0(a5)
     284:	00000013          	nop
     288:	01c12403          	lw	s0,28(sp)
     28c:	02010113          	addi	sp,sp,32
     290:	00008067          	ret

00000294 <print>:
     294:	fe010113          	addi	sp,sp,-32
     298:	00112e23          	sw	ra,28(sp)
     29c:	00812c23          	sw	s0,24(sp)
     2a0:	02010413          	addi	s0,sp,32
     2a4:	fea42623          	sw	a0,-20(s0)
     2a8:	0200006f          	j	2c8 <print+0x34>
     2ac:	fec42783          	lw	a5,-20(s0)
     2b0:	0007c783          	lbu	a5,0(a5)
     2b4:	00078513          	mv	a0,a5
     2b8:	f91ff0ef          	jal	248 <printc>
     2bc:	fec42783          	lw	a5,-20(s0)
     2c0:	00178793          	addi	a5,a5,1
     2c4:	fef42623          	sw	a5,-20(s0)
     2c8:	fec42783          	lw	a5,-20(s0)
     2cc:	0007c783          	lbu	a5,0(a5)
     2d0:	fc079ee3          	bnez	a5,2ac <print+0x18>
     2d4:	00000013          	nop
     2d8:	00000013          	nop
     2dc:	01c12083          	lw	ra,28(sp)
     2e0:	01812403          	lw	s0,24(sp)
     2e4:	02010113          	addi	sp,sp,32
     2e8:	00008067          	ret

000002ec <print_dec>:
     2ec:	fd010113          	addi	sp,sp,-48
     2f0:	02112623          	sw	ra,44(sp)
     2f4:	02812423          	sw	s0,40(sp)
     2f8:	03010413          	addi	s0,sp,48
     2fc:	fca42e23          	sw	a0,-36(s0)
     300:	3b9ad7b7          	lui	a5,0x3b9ad
     304:	a0078793          	addi	a5,a5,-1536 # 3b9aca00 <_stack_end+0x3b8aa5bc>
     308:	fef42623          	sw	a5,-20(s0)
     30c:	fe0405a3          	sb	zero,-21(s0)
     310:	fdc42703          	lw	a4,-36(s0)
     314:	fec42783          	lw	a5,-20(s0)
     318:	02f757b3          	divu	a5,a4,a5
     31c:	fef42223          	sw	a5,-28(s0)
     320:	fe442783          	lw	a5,-28(s0)
     324:	00078663          	beqz	a5,330 <print_dec+0x44>
     328:	00100793          	li	a5,1
     32c:	fef405a3          	sb	a5,-21(s0)
     330:	feb44783          	lbu	a5,-21(s0)
     334:	00078e63          	beqz	a5,350 <print_dec+0x64>
     338:	fe442783          	lw	a5,-28(s0)
     33c:	0ff7f793          	zext.b	a5,a5
     340:	03078793          	addi	a5,a5,48
     344:	0ff7f793          	zext.b	a5,a5
     348:	00078513          	mv	a0,a5
     34c:	efdff0ef          	jal	248 <printc>
     350:	fe442703          	lw	a4,-28(s0)
     354:	fec42783          	lw	a5,-20(s0)
     358:	02f707b3          	mul	a5,a4,a5
     35c:	fdc42703          	lw	a4,-36(s0)
     360:	40f707b3          	sub	a5,a4,a5
     364:	fcf42e23          	sw	a5,-36(s0)
     368:	fec42703          	lw	a4,-20(s0)
     36c:	00a00793          	li	a5,10
     370:	02f757b3          	divu	a5,a4,a5
     374:	fef42623          	sw	a5,-20(s0)
     378:	fec42783          	lw	a5,-20(s0)
     37c:	f8079ae3          	bnez	a5,310 <print_dec+0x24>
     380:	feb44783          	lbu	a5,-21(s0)
     384:	00079663          	bnez	a5,390 <print_dec+0xa4>
     388:	03000513          	li	a0,48
     38c:	ebdff0ef          	jal	248 <printc>
     390:	00000013          	nop
     394:	02c12083          	lw	ra,44(sp)
     398:	02812403          	lw	s0,40(sp)
     39c:	03010113          	addi	sp,sp,48
     3a0:	00008067          	ret

000003a4 <print_hex32>:
     3a4:	fd010113          	addi	sp,sp,-48
     3a8:	02112623          	sw	ra,44(sp)
     3ac:	02812423          	sw	s0,40(sp)
     3b0:	03010413          	addi	s0,sp,48
     3b4:	fca42e23          	sw	a0,-36(s0)
     3b8:	03000513          	li	a0,48
     3bc:	e8dff0ef          	jal	248 <printc>
     3c0:	07800513          	li	a0,120
     3c4:	e85ff0ef          	jal	248 <printc>
     3c8:	00700793          	li	a5,7
     3cc:	fef42623          	sw	a5,-20(s0)
     3d0:	0600006f          	j	430 <print_hex32+0x8c>
     3d4:	fec42783          	lw	a5,-20(s0)
     3d8:	00279793          	slli	a5,a5,0x2
     3dc:	fdc42703          	lw	a4,-36(s0)
     3e0:	00f757b3          	srl	a5,a4,a5
     3e4:	0ff7f793          	zext.b	a5,a5
     3e8:	00f7f793          	andi	a5,a5,15
     3ec:	fef405a3          	sb	a5,-21(s0)
     3f0:	feb44703          	lbu	a4,-21(s0)
     3f4:	00900793          	li	a5,9
     3f8:	00e7ea63          	bltu	a5,a4,40c <print_hex32+0x68>
     3fc:	feb44783          	lbu	a5,-21(s0)
     400:	03078793          	addi	a5,a5,48
     404:	fef405a3          	sb	a5,-21(s0)
     408:	0100006f          	j	418 <print_hex32+0x74>
     40c:	feb44783          	lbu	a5,-21(s0)
     410:	03778793          	addi	a5,a5,55
     414:	fef405a3          	sb	a5,-21(s0)
     418:	feb44783          	lbu	a5,-21(s0)
     41c:	00078513          	mv	a0,a5
     420:	e29ff0ef          	jal	248 <printc>
     424:	fec42783          	lw	a5,-20(s0)
     428:	fff78793          	addi	a5,a5,-1
     42c:	fef42623          	sw	a5,-20(s0)
     430:	fec42783          	lw	a5,-20(s0)
     434:	fa07d0e3          	bgez	a5,3d4 <print_hex32+0x30>
     438:	00000013          	nop
     43c:	00000013          	nop
     440:	02c12083          	lw	ra,44(sp)
     444:	02812403          	lw	s0,40(sp)
     448:	03010113          	addi	sp,sp,48
     44c:	00008067          	ret

00000450 <handle_exception>:
     450:	fd010113          	addi	sp,sp,-48
     454:	02112623          	sw	ra,44(sp)
     458:	02812423          	sw	s0,40(sp)
     45c:	03010413          	addi	s0,sp,48
     460:	fea42623          	sw	a0,-20(s0)
     464:	feb42423          	sw	a1,-24(s0)
     468:	fec42223          	sw	a2,-28(s0)
     46c:	fed42023          	sw	a3,-32(s0)
     470:	fce42e23          	sw	a4,-36(s0)
     474:	fcf42c23          	sw	a5,-40(s0)
     478:	fd042a23          	sw	a6,-44(s0)
     47c:	fd142823          	sw	a7,-48(s0)
     480:	fd442703          	lw	a4,-44(s0)
     484:	00b00793          	li	a5,11
     488:	04f70463          	beq	a4,a5,4d0 <handle_exception+0x80>
     48c:	fd442703          	lw	a4,-44(s0)
     490:	00b00793          	li	a5,11
     494:	06e7ea63          	bltu	a5,a4,508 <handle_exception+0xb8>
     498:	fd442783          	lw	a5,-44(s0)
     49c:	00078a63          	beqz	a5,4b0 <handle_exception+0x60>
     4a0:	fd442703          	lw	a4,-44(s0)
     4a4:	00200793          	li	a5,2
     4a8:	00f70c63          	beq	a4,a5,4c0 <handle_exception+0x70>
     4ac:	05c0006f          	j	508 <handle_exception+0xb8>
     4b0:	000027b7          	lui	a5,0x2
     4b4:	34878513          	addi	a0,a5,840 # 2348 <score2+0x4>
     4b8:	dddff0ef          	jal	294 <print>
     4bc:	05c0006f          	j	518 <handle_exception+0xc8>
     4c0:	000027b7          	lui	a5,0x2
     4c4:	37878513          	addi	a0,a5,888 # 2378 <score2+0x34>
     4c8:	dcdff0ef          	jal	294 <print>
     4cc:	04c0006f          	j	518 <handle_exception+0xc8>
     4d0:	fd042703          	lw	a4,-48(s0)
     4d4:	00400793          	li	a5,4
     4d8:	00f71863          	bne	a4,a5,4e8 <handle_exception+0x98>
     4dc:	fec42783          	lw	a5,-20(s0)
     4e0:	00078513          	mv	a0,a5
     4e4:	db1ff0ef          	jal	294 <print>
     4e8:	fd042703          	lw	a4,-48(s0)
     4ec:	00b00793          	li	a5,11
     4f0:	04f71663          	bne	a4,a5,53c <handle_exception+0xec>
     4f4:	fec42783          	lw	a5,-20(s0)
     4f8:	0ff7f793          	zext.b	a5,a5
     4fc:	00078513          	mv	a0,a5
     500:	d49ff0ef          	jal	248 <printc>
     504:	0380006f          	j	53c <handle_exception+0xec>
     508:	000027b7          	lui	a5,0x2
     50c:	39c78513          	addi	a0,a5,924 # 239c <score2+0x58>
     510:	d85ff0ef          	jal	294 <print>
     514:	00000013          	nop
     518:	000027b7          	lui	a5,0x2
     51c:	3bc78513          	addi	a0,a5,956 # 23bc <score2+0x78>
     520:	d75ff0ef          	jal	294 <print>
     524:	fec42503          	lw	a0,-20(s0)
     528:	e7dff0ef          	jal	3a4 <print_hex32>
     52c:	00a00513          	li	a0,10
     530:	d19ff0ef          	jal	248 <printc>
     534:	00000013          	nop
     538:	ffdff06f          	j	534 <handle_exception+0xe4>
     53c:	00000013          	nop
     540:	02c12083          	lw	ra,44(sp)
     544:	02812403          	lw	s0,40(sp)
     548:	03010113          	addi	sp,sp,48
     54c:	00008067          	ret

00000550 <nextprime>:
     550:	fe010113          	addi	sp,sp,-32
     554:	00812e23          	sw	s0,28(sp)
     558:	00912c23          	sw	s1,24(sp)
     55c:	01212a23          	sw	s2,20(sp)
     560:	01312823          	sw	s3,16(sp)
     564:	02010413          	addi	s0,sp,32
     568:	fea42623          	sw	a0,-20(s0)
     56c:	00000493          	li	s1,0
     570:	fec42703          	lw	a4,-20(s0)
     574:	00200793          	li	a5,2
     578:	02e7ce63          	blt	a5,a4,5b4 <nextprime+0x64>
     57c:	fec42783          	lw	a5,-20(s0)
     580:	00f04663          	bgtz	a5,58c <nextprime+0x3c>
     584:	00100793          	li	a5,1
     588:	0900006f          	j	618 <nextprime+0xc8>
     58c:	fec42703          	lw	a4,-20(s0)
     590:	00100793          	li	a5,1
     594:	00f71663          	bne	a4,a5,5a0 <nextprime+0x50>
     598:	00200793          	li	a5,2
     59c:	07c0006f          	j	618 <nextprime+0xc8>
     5a0:	fec42703          	lw	a4,-20(s0)
     5a4:	00200793          	li	a5,2
     5a8:	00f71c63          	bne	a4,a5,5c0 <nextprime+0x70>
     5ac:	00300793          	li	a5,3
     5b0:	0680006f          	j	618 <nextprime+0xc8>
     5b4:	fec42783          	lw	a5,-20(s0)
     5b8:	00178793          	addi	a5,a5,1
     5bc:	0017e493          	ori	s1,a5,1
     5c0:	00000993          	li	s3,0
     5c4:	0480006f          	j	60c <nextprime+0xbc>
     5c8:	00300913          	li	s2,3
     5cc:	01c0006f          	j	5e8 <nextprime+0x98>
     5d0:	00100993          	li	s3,1
     5d4:	0324e7b3          	rem	a5,s1,s2
     5d8:	00079663          	bnez	a5,5e4 <nextprime+0x94>
     5dc:	00000993          	li	s3,0
     5e0:	0180006f          	j	5f8 <nextprime+0xa8>
     5e4:	00190913          	addi	s2,s2,1
     5e8:	4014d793          	srai	a5,s1,0x1
     5ec:	00178793          	addi	a5,a5,1
     5f0:	ff27d0e3          	bge	a5,s2,5d0 <nextprime+0x80>
     5f4:	00000013          	nop
     5f8:	00100793          	li	a5,1
     5fc:	00f99663          	bne	s3,a5,608 <nextprime+0xb8>
     600:	00048793          	mv	a5,s1
     604:	0140006f          	j	618 <nextprime+0xc8>
     608:	00248493          	addi	s1,s1,2
     60c:	00100793          	li	a5,1
     610:	faf99ce3          	bne	s3,a5,5c8 <nextprime+0x78>
     614:	00048793          	mv	a5,s1
     618:	00078513          	mv	a0,a5
     61c:	01c12403          	lw	s0,28(sp)
     620:	01812483          	lw	s1,24(sp)
     624:	01412903          	lw	s2,20(sp)
     628:	01012983          	lw	s3,16(sp)
     62c:	02010113          	addi	sp,sp,32
     630:	00008067          	ret

00000634 <clearMovingElements>:
     634:	fe010113          	addi	sp,sp,-32
     638:	00112e23          	sw	ra,28(sp)
     63c:	00812c23          	sw	s0,24(sp)
     640:	02010413          	addi	s0,sp,32
     644:	fea42623          	sw	a0,-20(s0)
     648:	feb42423          	sw	a1,-24(s0)
     64c:	fec42223          	sw	a2,-28(s0)
     650:	fec42783          	lw	a5,-20(s0)
     654:	00079783          	lh	a5,0(a5)
     658:	00078513          	mv	a0,a5
     65c:	fec42783          	lw	a5,-20(s0)
     660:	0047a583          	lw	a1,4(a5)
     664:	fec42783          	lw	a5,-20(s0)
     668:	0087a603          	lw	a2,8(a5)
     66c:	fec42783          	lw	a5,-20(s0)
     670:	00c7a783          	lw	a5,12(a5)
     674:	00000713          	li	a4,0
     678:	00078693          	mv	a3,a5
     67c:	640010ef          	jal	1cbc <drawRectangle>
     680:	fe842783          	lw	a5,-24(s0)
     684:	00079783          	lh	a5,0(a5)
     688:	00078513          	mv	a0,a5
     68c:	fe842783          	lw	a5,-24(s0)
     690:	0047a583          	lw	a1,4(a5)
     694:	fe842783          	lw	a5,-24(s0)
     698:	0087a603          	lw	a2,8(a5)
     69c:	fe842783          	lw	a5,-24(s0)
     6a0:	00c7a783          	lw	a5,12(a5)
     6a4:	00000713          	li	a4,0
     6a8:	00078693          	mv	a3,a5
     6ac:	610010ef          	jal	1cbc <drawRectangle>
     6b0:	fe442783          	lw	a5,-28(s0)
     6b4:	0007a503          	lw	a0,0(a5)
     6b8:	fe442783          	lw	a5,-28(s0)
     6bc:	0047a583          	lw	a1,4(a5)
     6c0:	fe442783          	lw	a5,-28(s0)
     6c4:	0087a603          	lw	a2,8(a5)
     6c8:	fe442783          	lw	a5,-28(s0)
     6cc:	00c7a783          	lw	a5,12(a5)
     6d0:	00000713          	li	a4,0
     6d4:	00078693          	mv	a3,a5
     6d8:	5e4010ef          	jal	1cbc <drawRectangle>
     6dc:	000027b7          	lui	a5,0x2
     6e0:	3387d783          	lhu	a5,824(a5) # 2338 <SCREEN_WIDTH>
     6e4:	0017d793          	srli	a5,a5,0x1
     6e8:	01079793          	slli	a5,a5,0x10
     6ec:	0107d793          	srli	a5,a5,0x10
     6f0:	ff878513          	addi	a0,a5,-8
     6f4:	000027b7          	lui	a5,0x2
     6f8:	3407a783          	lw	a5,832(a5) # 2340 <score1>
     6fc:	0ff7f793          	zext.b	a5,a5
     700:	03078793          	addi	a5,a5,48
     704:	0ff7f793          	zext.b	a5,a5
     708:	00000713          	li	a4,0
     70c:	00000693          	li	a3,0
     710:	00078613          	mv	a2,a5
     714:	00a00593          	li	a1,10
     718:	48c010ef          	jal	1ba4 <drawCharacter>
     71c:	000027b7          	lui	a5,0x2
     720:	3387d783          	lhu	a5,824(a5) # 2338 <SCREEN_WIDTH>
     724:	0017d793          	srli	a5,a5,0x1
     728:	01079793          	slli	a5,a5,0x10
     72c:	0107d793          	srli	a5,a5,0x10
     730:	00878513          	addi	a0,a5,8
     734:	000027b7          	lui	a5,0x2
     738:	3447a783          	lw	a5,836(a5) # 2344 <score2>
     73c:	0ff7f793          	zext.b	a5,a5
     740:	03078793          	addi	a5,a5,48
     744:	0ff7f793          	zext.b	a5,a5
     748:	00000713          	li	a4,0
     74c:	00000693          	li	a3,0
     750:	00078613          	mv	a2,a5
     754:	00a00593          	li	a1,10
     758:	44c010ef          	jal	1ba4 <drawCharacter>
     75c:	00000013          	nop
     760:	01c12083          	lw	ra,28(sp)
     764:	01812403          	lw	s0,24(sp)
     768:	02010113          	addi	sp,sp,32
     76c:	00008067          	ret

00000770 <drawMovingElements>:
     770:	fe010113          	addi	sp,sp,-32
     774:	00112e23          	sw	ra,28(sp)
     778:	00812c23          	sw	s0,24(sp)
     77c:	02010413          	addi	s0,sp,32
     780:	fea42623          	sw	a0,-20(s0)
     784:	feb42423          	sw	a1,-24(s0)
     788:	fec42223          	sw	a2,-28(s0)
     78c:	fec42783          	lw	a5,-20(s0)
     790:	00079783          	lh	a5,0(a5)
     794:	00078513          	mv	a0,a5
     798:	fec42783          	lw	a5,-20(s0)
     79c:	0047a583          	lw	a1,4(a5)
     7a0:	fec42783          	lw	a5,-20(s0)
     7a4:	0087a603          	lw	a2,8(a5)
     7a8:	fec42783          	lw	a5,-20(s0)
     7ac:	00c7a783          	lw	a5,12(a5)
     7b0:	0ff00713          	li	a4,255
     7b4:	00078693          	mv	a3,a5
     7b8:	504010ef          	jal	1cbc <drawRectangle>
     7bc:	fe842783          	lw	a5,-24(s0)
     7c0:	00079783          	lh	a5,0(a5)
     7c4:	00078513          	mv	a0,a5
     7c8:	fe842783          	lw	a5,-24(s0)
     7cc:	0047a583          	lw	a1,4(a5)
     7d0:	fe842783          	lw	a5,-24(s0)
     7d4:	0087a603          	lw	a2,8(a5)
     7d8:	fe842783          	lw	a5,-24(s0)
     7dc:	00c7a783          	lw	a5,12(a5)
     7e0:	0ff00713          	li	a4,255
     7e4:	00078693          	mv	a3,a5
     7e8:	4d4010ef          	jal	1cbc <drawRectangle>
     7ec:	fe442783          	lw	a5,-28(s0)
     7f0:	0007a503          	lw	a0,0(a5)
     7f4:	fe442783          	lw	a5,-28(s0)
     7f8:	0047a583          	lw	a1,4(a5)
     7fc:	fe442783          	lw	a5,-28(s0)
     800:	0087a603          	lw	a2,8(a5)
     804:	fe442783          	lw	a5,-28(s0)
     808:	00c7a783          	lw	a5,12(a5)
     80c:	0ff00713          	li	a4,255
     810:	00078693          	mv	a3,a5
     814:	4a8010ef          	jal	1cbc <drawRectangle>
     818:	000027b7          	lui	a5,0x2
     81c:	3387d783          	lhu	a5,824(a5) # 2338 <SCREEN_WIDTH>
     820:	0017d793          	srli	a5,a5,0x1
     824:	01079793          	slli	a5,a5,0x10
     828:	0107d793          	srli	a5,a5,0x10
     82c:	ff878513          	addi	a0,a5,-8
     830:	000027b7          	lui	a5,0x2
     834:	3407a783          	lw	a5,832(a5) # 2340 <score1>
     838:	0ff7f793          	zext.b	a5,a5
     83c:	03078793          	addi	a5,a5,48
     840:	0ff7f793          	zext.b	a5,a5
     844:	00000713          	li	a4,0
     848:	0ff00693          	li	a3,255
     84c:	00078613          	mv	a2,a5
     850:	00a00593          	li	a1,10
     854:	350010ef          	jal	1ba4 <drawCharacter>
     858:	000027b7          	lui	a5,0x2
     85c:	3387d783          	lhu	a5,824(a5) # 2338 <SCREEN_WIDTH>
     860:	0017d793          	srli	a5,a5,0x1
     864:	01079793          	slli	a5,a5,0x10
     868:	0107d793          	srli	a5,a5,0x10
     86c:	00000713          	li	a4,0
     870:	0ff00693          	li	a3,255
     874:	03a00613          	li	a2,58
     878:	00a00593          	li	a1,10
     87c:	00078513          	mv	a0,a5
     880:	324010ef          	jal	1ba4 <drawCharacter>
     884:	000027b7          	lui	a5,0x2
     888:	3387d783          	lhu	a5,824(a5) # 2338 <SCREEN_WIDTH>
     88c:	0017d793          	srli	a5,a5,0x1
     890:	01079793          	slli	a5,a5,0x10
     894:	0107d793          	srli	a5,a5,0x10
     898:	00878513          	addi	a0,a5,8
     89c:	000027b7          	lui	a5,0x2
     8a0:	3447a783          	lw	a5,836(a5) # 2344 <score2>
     8a4:	0ff7f793          	zext.b	a5,a5
     8a8:	03078793          	addi	a5,a5,48
     8ac:	0ff7f793          	zext.b	a5,a5
     8b0:	00000713          	li	a4,0
     8b4:	0ff00693          	li	a3,255
     8b8:	00078613          	mv	a2,a5
     8bc:	00a00593          	li	a1,10
     8c0:	2e4010ef          	jal	1ba4 <drawCharacter>
     8c4:	520010ef          	jal	1de4 <frameBuffer>
     8c8:	00000013          	nop
     8cc:	01c12083          	lw	ra,28(sp)
     8d0:	01812403          	lw	s0,24(sp)
     8d4:	02010113          	addi	sp,sp,32
     8d8:	00008067          	ret

000008dc <input>:
     8dc:	fd010113          	addi	sp,sp,-48
     8e0:	02112623          	sw	ra,44(sp)
     8e4:	02812423          	sw	s0,40(sp)
     8e8:	03010413          	addi	s0,sp,48
     8ec:	fca42e23          	sw	a0,-36(s0)
     8f0:	fcb42c23          	sw	a1,-40(s0)
     8f4:	fcc42a23          	sw	a2,-44(s0)
     8f8:	244010ef          	jal	1b3c <get_sw>
     8fc:	fea42623          	sw	a0,-20(s0)
     900:	fec42783          	lw	a5,-20(s0)
     904:	2007f793          	andi	a5,a5,512
     908:	00f037b3          	snez	a5,a5
     90c:	0ff7f713          	zext.b	a4,a5
     910:	fdc42783          	lw	a5,-36(s0)
     914:	00e78823          	sb	a4,16(a5)
     918:	fec42783          	lw	a5,-20(s0)
     91c:	1007f793          	andi	a5,a5,256
     920:	00f037b3          	snez	a5,a5
     924:	0ff7f713          	zext.b	a4,a5
     928:	fdc42783          	lw	a5,-36(s0)
     92c:	00e788a3          	sb	a4,17(a5)
     930:	000027b7          	lui	a5,0x2
     934:	33c7a703          	lw	a4,828(a5) # 233c <gameState>
     938:	00100793          	li	a5,1
     93c:	02f71c63          	bne	a4,a5,974 <input+0x98>
     940:	fec42783          	lw	a5,-20(s0)
     944:	0027f793          	andi	a5,a5,2
     948:	00f037b3          	snez	a5,a5
     94c:	0ff7f713          	zext.b	a4,a5
     950:	fd842783          	lw	a5,-40(s0)
     954:	00e78823          	sb	a4,16(a5)
     958:	fec42783          	lw	a5,-20(s0)
     95c:	0017f793          	andi	a5,a5,1
     960:	00f037b3          	snez	a5,a5
     964:	0ff7f713          	zext.b	a4,a5
     968:	fd842783          	lw	a5,-40(s0)
     96c:	00e788a3          	sb	a4,17(a5)
     970:	14c0006f          	j	abc <input+0x1e0>
     974:	00f00793          	li	a5,15
     978:	fef42423          	sw	a5,-24(s0)
     97c:	000027b7          	lui	a5,0x2
     980:	3387d783          	lhu	a5,824(a5) # 2338 <SCREEN_WIDTH>
     984:	0017d793          	srli	a5,a5,0x1
     988:	01079793          	slli	a5,a5,0x10
     98c:	0107d793          	srli	a5,a5,0x10
     990:	fef42223          	sw	a5,-28(s0)
     994:	fd842783          	lw	a5,-40(s0)
     998:	0047a703          	lw	a4,4(a5)
     99c:	fd842783          	lw	a5,-40(s0)
     9a0:	00c7a783          	lw	a5,12(a5)
     9a4:	01f7d693          	srli	a3,a5,0x1f
     9a8:	00f687b3          	add	a5,a3,a5
     9ac:	4017d793          	srai	a5,a5,0x1
     9b0:	00f70733          	add	a4,a4,a5
     9b4:	fd442783          	lw	a5,-44(s0)
     9b8:	0047a683          	lw	a3,4(a5)
     9bc:	fd442783          	lw	a5,-44(s0)
     9c0:	00c7a783          	lw	a5,12(a5)
     9c4:	01f7d613          	srli	a2,a5,0x1f
     9c8:	00f607b3          	add	a5,a2,a5
     9cc:	4017d793          	srai	a5,a5,0x1
     9d0:	00f687b3          	add	a5,a3,a5
     9d4:	40f707b3          	sub	a5,a4,a5
     9d8:	fe842703          	lw	a4,-24(s0)
     9dc:	02f75c63          	bge	a4,a5,a14 <input+0x138>
     9e0:	fd842783          	lw	a5,-40(s0)
     9e4:	00079783          	lh	a5,0(a5)
     9e8:	00078693          	mv	a3,a5
     9ec:	fd442783          	lw	a5,-44(s0)
     9f0:	0007a703          	lw	a4,0(a5)
     9f4:	fd442783          	lw	a5,-44(s0)
     9f8:	0087a783          	lw	a5,8(a5)
     9fc:	00f707b3          	add	a5,a4,a5
     a00:	40f687b3          	sub	a5,a3,a5
     a04:	fe442703          	lw	a4,-28(s0)
     a08:	00e7d663          	bge	a5,a4,a14 <input+0x138>
     a0c:	00100793          	li	a5,1
     a10:	0080006f          	j	a18 <input+0x13c>
     a14:	00000793          	li	a5,0
     a18:	0017f793          	andi	a5,a5,1
     a1c:	0ff7f713          	zext.b	a4,a5
     a20:	fd842783          	lw	a5,-40(s0)
     a24:	00e78823          	sb	a4,16(a5)
     a28:	fd442783          	lw	a5,-44(s0)
     a2c:	0047a703          	lw	a4,4(a5)
     a30:	fd442783          	lw	a5,-44(s0)
     a34:	00c7a783          	lw	a5,12(a5)
     a38:	01f7d693          	srli	a3,a5,0x1f
     a3c:	00f687b3          	add	a5,a3,a5
     a40:	4017d793          	srai	a5,a5,0x1
     a44:	00f70733          	add	a4,a4,a5
     a48:	fd842783          	lw	a5,-40(s0)
     a4c:	0047a683          	lw	a3,4(a5)
     a50:	fd842783          	lw	a5,-40(s0)
     a54:	00c7a783          	lw	a5,12(a5)
     a58:	01f7d613          	srli	a2,a5,0x1f
     a5c:	00f607b3          	add	a5,a2,a5
     a60:	4017d793          	srai	a5,a5,0x1
     a64:	00f687b3          	add	a5,a3,a5
     a68:	40f707b3          	sub	a5,a4,a5
     a6c:	fe842703          	lw	a4,-24(s0)
     a70:	02f75c63          	bge	a4,a5,aa8 <input+0x1cc>
     a74:	fd842783          	lw	a5,-40(s0)
     a78:	00079783          	lh	a5,0(a5)
     a7c:	00078693          	mv	a3,a5
     a80:	fd442783          	lw	a5,-44(s0)
     a84:	0007a703          	lw	a4,0(a5)
     a88:	fd442783          	lw	a5,-44(s0)
     a8c:	0087a783          	lw	a5,8(a5)
     a90:	00f707b3          	add	a5,a4,a5
     a94:	40f687b3          	sub	a5,a3,a5
     a98:	fe442703          	lw	a4,-28(s0)
     a9c:	00e7d663          	bge	a5,a4,aa8 <input+0x1cc>
     aa0:	00100793          	li	a5,1
     aa4:	0080006f          	j	aac <input+0x1d0>
     aa8:	00000793          	li	a5,0
     aac:	0017f793          	andi	a5,a5,1
     ab0:	0ff7f713          	zext.b	a4,a5
     ab4:	fd842783          	lw	a5,-40(s0)
     ab8:	00e788a3          	sb	a4,17(a5)
     abc:	00000013          	nop
     ac0:	02c12083          	lw	ra,44(sp)
     ac4:	02812403          	lw	s0,40(sp)
     ac8:	03010113          	addi	sp,sp,48
     acc:	00008067          	ret

00000ad0 <paddleMovement>:
     ad0:	fe010113          	addi	sp,sp,-32
     ad4:	00812e23          	sw	s0,28(sp)
     ad8:	02010413          	addi	s0,sp,32
     adc:	fea42623          	sw	a0,-20(s0)
     ae0:	fec42783          	lw	a5,-20(s0)
     ae4:	0107c783          	lbu	a5,16(a5)
     ae8:	02078263          	beqz	a5,b0c <paddleMovement+0x3c>
     aec:	fec42783          	lw	a5,-20(s0)
     af0:	0047a783          	lw	a5,4(a5)
     af4:	00f05c63          	blez	a5,b0c <paddleMovement+0x3c>
     af8:	fec42783          	lw	a5,-20(s0)
     afc:	0047a783          	lw	a5,4(a5)
     b00:	fff78713          	addi	a4,a5,-1
     b04:	fec42783          	lw	a5,-20(s0)
     b08:	00e7a223          	sw	a4,4(a5)
     b0c:	fec42783          	lw	a5,-20(s0)
     b10:	0117c783          	lbu	a5,17(a5)
     b14:	02078c63          	beqz	a5,b4c <paddleMovement+0x7c>
     b18:	fec42783          	lw	a5,-20(s0)
     b1c:	0047a703          	lw	a4,4(a5)
     b20:	fec42783          	lw	a5,-20(s0)
     b24:	00c7a783          	lw	a5,12(a5)
     b28:	00f707b3          	add	a5,a4,a5
     b2c:	00002737          	lui	a4,0x2
     b30:	33a75703          	lhu	a4,826(a4) # 233a <SCREEN_HEIGHT>
     b34:	00e7dc63          	bge	a5,a4,b4c <paddleMovement+0x7c>
     b38:	fec42783          	lw	a5,-20(s0)
     b3c:	0047a783          	lw	a5,4(a5)
     b40:	00178713          	addi	a4,a5,1
     b44:	fec42783          	lw	a5,-20(s0)
     b48:	00e7a223          	sw	a4,4(a5)
     b4c:	00000013          	nop
     b50:	01c12403          	lw	s0,28(sp)
     b54:	02010113          	addi	sp,sp,32
     b58:	00008067          	ret

00000b5c <resetBall>:
     b5c:	fe010113          	addi	sp,sp,-32
     b60:	00812e23          	sw	s0,28(sp)
     b64:	02010413          	addi	s0,sp,32
     b68:	fea42623          	sw	a0,-20(s0)
     b6c:	000027b7          	lui	a5,0x2
     b70:	3387d783          	lhu	a5,824(a5) # 2338 <SCREEN_WIDTH>
     b74:	0017d793          	srli	a5,a5,0x1
     b78:	01079793          	slli	a5,a5,0x10
     b7c:	0107d793          	srli	a5,a5,0x10
     b80:	00078693          	mv	a3,a5
     b84:	fec42783          	lw	a5,-20(s0)
     b88:	0087a783          	lw	a5,8(a5)
     b8c:	01f7d713          	srli	a4,a5,0x1f
     b90:	00f707b3          	add	a5,a4,a5
     b94:	4017d793          	srai	a5,a5,0x1
     b98:	40f007b3          	neg	a5,a5
     b9c:	00f68733          	add	a4,a3,a5
     ba0:	fec42783          	lw	a5,-20(s0)
     ba4:	00e7a023          	sw	a4,0(a5)
     ba8:	000027b7          	lui	a5,0x2
     bac:	33a7d783          	lhu	a5,826(a5) # 233a <SCREEN_HEIGHT>
     bb0:	0017d793          	srli	a5,a5,0x1
     bb4:	01079793          	slli	a5,a5,0x10
     bb8:	0107d793          	srli	a5,a5,0x10
     bbc:	00078693          	mv	a3,a5
     bc0:	fec42783          	lw	a5,-20(s0)
     bc4:	00c7a783          	lw	a5,12(a5)
     bc8:	01f7d713          	srli	a4,a5,0x1f
     bcc:	00f707b3          	add	a5,a4,a5
     bd0:	4017d793          	srai	a5,a5,0x1
     bd4:	40f007b3          	neg	a5,a5
     bd8:	00f68733          	add	a4,a3,a5
     bdc:	fec42783          	lw	a5,-20(s0)
     be0:	00e7a223          	sw	a4,4(a5)
     be4:	fec42783          	lw	a5,-20(s0)
     be8:	0147a783          	lw	a5,20(a5)
     bec:	40f00733          	neg	a4,a5
     bf0:	fec42783          	lw	a5,-20(s0)
     bf4:	00e7aa23          	sw	a4,20(a5)
     bf8:	fec42783          	lw	a5,-20(s0)
     bfc:	0107a783          	lw	a5,16(a5)
     c00:	40f00733          	neg	a4,a5
     c04:	fec42783          	lw	a5,-20(s0)
     c08:	00e7a823          	sw	a4,16(a5)
     c0c:	00000013          	nop
     c10:	01c12403          	lw	s0,28(sp)
     c14:	02010113          	addi	sp,sp,32
     c18:	00008067          	ret

00000c1c <pointScored>:
     c1c:	fe010113          	addi	sp,sp,-32
     c20:	00112e23          	sw	ra,28(sp)
     c24:	00812c23          	sw	s0,24(sp)
     c28:	02010413          	addi	s0,sp,32
     c2c:	fea42623          	sw	a0,-20(s0)
     c30:	feb42423          	sw	a1,-24(s0)
     c34:	fec42503          	lw	a0,-20(s0)
     c38:	f25ff0ef          	jal	b5c <resetBall>
     c3c:	fe842783          	lw	a5,-24(s0)
     c40:	0007a783          	lw	a5,0(a5)
     c44:	00178713          	addi	a4,a5,1
     c48:	fe842783          	lw	a5,-24(s0)
     c4c:	00e7a023          	sw	a4,0(a5)
     c50:	fe842703          	lw	a4,-24(s0)
     c54:	000027b7          	lui	a5,0x2
     c58:	34078793          	addi	a5,a5,832 # 2340 <score1>
     c5c:	00f71e63          	bne	a4,a5,c78 <pointScored+0x5c>
     c60:	000027b7          	lui	a5,0x2
     c64:	3407a783          	lw	a5,832(a5) # 2340 <score1>
     c68:	00078593          	mv	a1,a5
     c6c:	00400513          	li	a0,4
     c70:	5bd000ef          	jal	1a2c <set_display>
     c74:	0180006f          	j	c8c <pointScored+0x70>
     c78:	000027b7          	lui	a5,0x2
     c7c:	3447a783          	lw	a5,836(a5) # 2344 <score2>
     c80:	00078593          	mv	a1,a5
     c84:	00000513          	li	a0,0
     c88:	5a5000ef          	jal	1a2c <set_display>
     c8c:	fe842783          	lw	a5,-24(s0)
     c90:	0007a703          	lw	a4,0(a5)
     c94:	00100793          	li	a5,1
     c98:	00f71863          	bne	a4,a5,ca8 <pointScored+0x8c>
     c9c:	000027b7          	lui	a5,0x2
     ca0:	00300713          	li	a4,3
     ca4:	32e7ae23          	sw	a4,828(a5) # 233c <gameState>
     ca8:	00000013          	nop
     cac:	01c12083          	lw	ra,28(sp)
     cb0:	01812403          	lw	s0,24(sp)
     cb4:	02010113          	addi	sp,sp,32
     cb8:	00008067          	ret

00000cbc <ballMovement>:
     cbc:	fe010113          	addi	sp,sp,-32
     cc0:	00112e23          	sw	ra,28(sp)
     cc4:	00812c23          	sw	s0,24(sp)
     cc8:	02010413          	addi	s0,sp,32
     ccc:	fea42623          	sw	a0,-20(s0)
     cd0:	fec42783          	lw	a5,-20(s0)
     cd4:	0007a783          	lw	a5,0(a5)
     cd8:	00f04c63          	bgtz	a5,cf0 <ballMovement+0x34>
     cdc:	000027b7          	lui	a5,0x2
     ce0:	34478593          	addi	a1,a5,836 # 2344 <score2>
     ce4:	fec42503          	lw	a0,-20(s0)
     ce8:	f35ff0ef          	jal	c1c <pointScored>
     cec:	0340006f          	j	d20 <ballMovement+0x64>
     cf0:	fec42783          	lw	a5,-20(s0)
     cf4:	0007a703          	lw	a4,0(a5)
     cf8:	fec42783          	lw	a5,-20(s0)
     cfc:	0087a783          	lw	a5,8(a5)
     d00:	00f707b3          	add	a5,a4,a5
     d04:	00002737          	lui	a4,0x2
     d08:	33875703          	lhu	a4,824(a4) # 2338 <SCREEN_WIDTH>
     d0c:	00e7ca63          	blt	a5,a4,d20 <ballMovement+0x64>
     d10:	000027b7          	lui	a5,0x2
     d14:	34078593          	addi	a1,a5,832 # 2340 <score1>
     d18:	fec42503          	lw	a0,-20(s0)
     d1c:	f01ff0ef          	jal	c1c <pointScored>
     d20:	fec42783          	lw	a5,-20(s0)
     d24:	0047a783          	lw	a5,4(a5)
     d28:	0207c263          	bltz	a5,d4c <ballMovement+0x90>
     d2c:	fec42783          	lw	a5,-20(s0)
     d30:	0047a703          	lw	a4,4(a5)
     d34:	fec42783          	lw	a5,-20(s0)
     d38:	00c7a783          	lw	a5,12(a5)
     d3c:	00f707b3          	add	a5,a4,a5
     d40:	00002737          	lui	a4,0x2
     d44:	33a75703          	lhu	a4,826(a4) # 233a <SCREEN_HEIGHT>
     d48:	00f75c63          	bge	a4,a5,d60 <ballMovement+0xa4>
     d4c:	fec42783          	lw	a5,-20(s0)
     d50:	0147a783          	lw	a5,20(a5)
     d54:	40f00733          	neg	a4,a5
     d58:	fec42783          	lw	a5,-20(s0)
     d5c:	00e7aa23          	sw	a4,20(a5)
     d60:	fec42783          	lw	a5,-20(s0)
     d64:	0047a703          	lw	a4,4(a5)
     d68:	fec42783          	lw	a5,-20(s0)
     d6c:	0147a783          	lw	a5,20(a5)
     d70:	00f70733          	add	a4,a4,a5
     d74:	fec42783          	lw	a5,-20(s0)
     d78:	00e7a223          	sw	a4,4(a5)
     d7c:	fec42783          	lw	a5,-20(s0)
     d80:	0007a703          	lw	a4,0(a5)
     d84:	fec42783          	lw	a5,-20(s0)
     d88:	0107a783          	lw	a5,16(a5)
     d8c:	00f70733          	add	a4,a4,a5
     d90:	fec42783          	lw	a5,-20(s0)
     d94:	00e7a023          	sw	a4,0(a5)
     d98:	00000013          	nop
     d9c:	01c12083          	lw	ra,28(sp)
     da0:	01812403          	lw	s0,24(sp)
     da4:	02010113          	addi	sp,sp,32
     da8:	00008067          	ret

00000dac <resetGame>:
     dac:	ff010113          	addi	sp,sp,-16
     db0:	00812623          	sw	s0,12(sp)
     db4:	01010413          	addi	s0,sp,16
     db8:	000027b7          	lui	a5,0x2
     dbc:	3407a023          	sw	zero,832(a5) # 2340 <score1>
     dc0:	000027b7          	lui	a5,0x2
     dc4:	3407a223          	sw	zero,836(a5) # 2344 <score2>
     dc8:	00000013          	nop
     dcc:	00c12403          	lw	s0,12(sp)
     dd0:	01010113          	addi	sp,sp,16
     dd4:	00008067          	ret

00000dd8 <paddleCollision>:
     dd8:	fe010113          	addi	sp,sp,-32
     ddc:	00812e23          	sw	s0,28(sp)
     de0:	02010413          	addi	s0,sp,32
     de4:	fea42623          	sw	a0,-20(s0)
     de8:	feb42423          	sw	a1,-24(s0)
     dec:	fec42783          	lw	a5,-20(s0)
     df0:	0047a703          	lw	a4,4(a5)
     df4:	fe842783          	lw	a5,-24(s0)
     df8:	0047a683          	lw	a3,4(a5)
     dfc:	fe842783          	lw	a5,-24(s0)
     e00:	00c7a783          	lw	a5,12(a5)
     e04:	00f687b3          	add	a5,a3,a5
     e08:	0cf75e63          	bge	a4,a5,ee4 <paddleCollision+0x10c>
     e0c:	fe842783          	lw	a5,-24(s0)
     e10:	0047a703          	lw	a4,4(a5)
     e14:	fec42783          	lw	a5,-20(s0)
     e18:	0047a683          	lw	a3,4(a5)
     e1c:	fec42783          	lw	a5,-20(s0)
     e20:	00c7a783          	lw	a5,12(a5)
     e24:	00f687b3          	add	a5,a3,a5
     e28:	0af75e63          	bge	a4,a5,ee4 <paddleCollision+0x10c>
     e2c:	fec42783          	lw	a5,-20(s0)
     e30:	00079783          	lh	a5,0(a5)
     e34:	00078693          	mv	a3,a5
     e38:	fe842783          	lw	a5,-24(s0)
     e3c:	0007a703          	lw	a4,0(a5)
     e40:	fe842783          	lw	a5,-24(s0)
     e44:	0087a783          	lw	a5,8(a5)
     e48:	00f707b3          	add	a5,a4,a5
     e4c:	08f6dc63          	bge	a3,a5,ee4 <paddleCollision+0x10c>
     e50:	fe842783          	lw	a5,-24(s0)
     e54:	0007a703          	lw	a4,0(a5)
     e58:	fec42783          	lw	a5,-20(s0)
     e5c:	00079783          	lh	a5,0(a5)
     e60:	00078693          	mv	a3,a5
     e64:	fec42783          	lw	a5,-20(s0)
     e68:	0087a783          	lw	a5,8(a5)
     e6c:	00f687b3          	add	a5,a3,a5
     e70:	06f75a63          	bge	a4,a5,ee4 <paddleCollision+0x10c>
     e74:	fe842783          	lw	a5,-24(s0)
     e78:	0107a783          	lw	a5,16(a5)
     e7c:	40f00733          	neg	a4,a5
     e80:	fe842783          	lw	a5,-24(s0)
     e84:	00e7a823          	sw	a4,16(a5)
     e88:	fe842783          	lw	a5,-24(s0)
     e8c:	0007a783          	lw	a5,0(a5)
     e90:	00002737          	lui	a4,0x2
     e94:	33875703          	lhu	a4,824(a4) # 2338 <SCREEN_WIDTH>
     e98:	00175713          	srli	a4,a4,0x1
     e9c:	01071713          	slli	a4,a4,0x10
     ea0:	01075713          	srli	a4,a4,0x10
     ea4:	02e7d263          	bge	a5,a4,ec8 <paddleCollision+0xf0>
     ea8:	fe842783          	lw	a5,-24(s0)
     eac:	0007a703          	lw	a4,0(a5)
     eb0:	fe842783          	lw	a5,-24(s0)
     eb4:	0087a783          	lw	a5,8(a5)
     eb8:	00f70733          	add	a4,a4,a5
     ebc:	fe842783          	lw	a5,-24(s0)
     ec0:	00e7a023          	sw	a4,0(a5)
     ec4:	0200006f          	j	ee4 <paddleCollision+0x10c>
     ec8:	fe842783          	lw	a5,-24(s0)
     ecc:	0007a703          	lw	a4,0(a5)
     ed0:	fe842783          	lw	a5,-24(s0)
     ed4:	0087a783          	lw	a5,8(a5)
     ed8:	40f70733          	sub	a4,a4,a5
     edc:	fe842783          	lw	a5,-24(s0)
     ee0:	00e7a023          	sw	a4,0(a5)
     ee4:	00000013          	nop
     ee8:	01c12403          	lw	s0,28(sp)
     eec:	02010113          	addi	sp,sp,32
     ef0:	00008067          	ret

00000ef4 <runGameLoop>:
     ef4:	f5010113          	addi	sp,sp,-176
     ef8:	0a112623          	sw	ra,172(sp)
     efc:	0a812423          	sw	s0,168(sp)
     f00:	0b010413          	addi	s0,sp,176
     f04:	000027b7          	lui	a5,0x2
     f08:	3407a023          	sw	zero,832(a5) # 2340 <score1>
     f0c:	000027b7          	lui	a5,0x2
     f10:	3407a223          	sw	zero,836(a5) # 2344 <score2>
     f14:	000027b7          	lui	a5,0x2
     f18:	3387d703          	lhu	a4,824(a5) # 2338 <SCREEN_WIDTH>
     f1c:	02800793          	li	a5,40
     f20:	02f757b3          	divu	a5,a4,a5
     f24:	01079793          	slli	a5,a5,0x10
     f28:	0107d793          	srli	a5,a5,0x10
     f2c:	fcf42c23          	sw	a5,-40(s0)
     f30:	000027b7          	lui	a5,0x2
     f34:	33a7d703          	lhu	a4,826(a5) # 233a <SCREEN_HEIGHT>
     f38:	00500793          	li	a5,5
     f3c:	02f757b3          	divu	a5,a4,a5
     f40:	01079793          	slli	a5,a5,0x10
     f44:	0107d793          	srli	a5,a5,0x10
     f48:	fcf42e23          	sw	a5,-36(s0)
     f4c:	00a00793          	li	a5,10
     f50:	fcf41823          	sh	a5,-48(s0)
     f54:	000027b7          	lui	a5,0x2
     f58:	33a7d783          	lhu	a5,826(a5) # 233a <SCREEN_HEIGHT>
     f5c:	0017d793          	srli	a5,a5,0x1
     f60:	01079793          	slli	a5,a5,0x10
     f64:	0107d793          	srli	a5,a5,0x10
     f68:	00078693          	mv	a3,a5
     f6c:	fdc42783          	lw	a5,-36(s0)
     f70:	01f7d713          	srli	a4,a5,0x1f
     f74:	00f707b3          	add	a5,a4,a5
     f78:	4017d793          	srai	a5,a5,0x1
     f7c:	40f007b3          	neg	a5,a5
     f80:	00f687b3          	add	a5,a3,a5
     f84:	fcf42a23          	sw	a5,-44(s0)
     f88:	000027b7          	lui	a5,0x2
     f8c:	3387d703          	lhu	a4,824(a5) # 2338 <SCREEN_WIDTH>
     f90:	02800793          	li	a5,40
     f94:	02f757b3          	divu	a5,a4,a5
     f98:	01079793          	slli	a5,a5,0x10
     f9c:	0107d793          	srli	a5,a5,0x10
     fa0:	fcf42223          	sw	a5,-60(s0)
     fa4:	000027b7          	lui	a5,0x2
     fa8:	33a7d703          	lhu	a4,826(a5) # 233a <SCREEN_HEIGHT>
     fac:	00500793          	li	a5,5
     fb0:	02f757b3          	divu	a5,a4,a5
     fb4:	01079793          	slli	a5,a5,0x10
     fb8:	0107d793          	srli	a5,a5,0x10
     fbc:	fcf42423          	sw	a5,-56(s0)
     fc0:	000027b7          	lui	a5,0x2
     fc4:	3387d703          	lhu	a4,824(a5) # 2338 <SCREEN_WIDTH>
     fc8:	fc442783          	lw	a5,-60(s0)
     fcc:	01079793          	slli	a5,a5,0x10
     fd0:	0107d793          	srli	a5,a5,0x10
     fd4:	40f707b3          	sub	a5,a4,a5
     fd8:	01079793          	slli	a5,a5,0x10
     fdc:	0107d793          	srli	a5,a5,0x10
     fe0:	ff678793          	addi	a5,a5,-10
     fe4:	01079793          	slli	a5,a5,0x10
     fe8:	0107d793          	srli	a5,a5,0x10
     fec:	01079793          	slli	a5,a5,0x10
     ff0:	4107d793          	srai	a5,a5,0x10
     ff4:	faf41e23          	sh	a5,-68(s0)
     ff8:	000027b7          	lui	a5,0x2
     ffc:	33a7d783          	lhu	a5,826(a5) # 233a <SCREEN_HEIGHT>
    1000:	0017d793          	srli	a5,a5,0x1
    1004:	01079793          	slli	a5,a5,0x10
    1008:	0107d793          	srli	a5,a5,0x10
    100c:	00078693          	mv	a3,a5
    1010:	fc842783          	lw	a5,-56(s0)
    1014:	01f7d713          	srli	a4,a5,0x1f
    1018:	00f707b3          	add	a5,a4,a5
    101c:	4017d793          	srai	a5,a5,0x1
    1020:	40f007b3          	neg	a5,a5
    1024:	00f687b3          	add	a5,a3,a5
    1028:	fcf42023          	sw	a5,-64(s0)
    102c:	00400793          	li	a5,4
    1030:	faf42823          	sw	a5,-80(s0)
    1034:	00400793          	li	a5,4
    1038:	faf42623          	sw	a5,-84(s0)
    103c:	000027b7          	lui	a5,0x2
    1040:	3387d783          	lhu	a5,824(a5) # 2338 <SCREEN_WIDTH>
    1044:	0017d793          	srli	a5,a5,0x1
    1048:	01079793          	slli	a5,a5,0x10
    104c:	0107d793          	srli	a5,a5,0x10
    1050:	00078693          	mv	a3,a5
    1054:	fac42783          	lw	a5,-84(s0)
    1058:	01f7d713          	srli	a4,a5,0x1f
    105c:	00f707b3          	add	a5,a4,a5
    1060:	4017d793          	srai	a5,a5,0x1
    1064:	40f007b3          	neg	a5,a5
    1068:	00f687b3          	add	a5,a3,a5
    106c:	faf42223          	sw	a5,-92(s0)
    1070:	000027b7          	lui	a5,0x2
    1074:	33a7d783          	lhu	a5,826(a5) # 233a <SCREEN_HEIGHT>
    1078:	0017d793          	srli	a5,a5,0x1
    107c:	01079793          	slli	a5,a5,0x10
    1080:	0107d793          	srli	a5,a5,0x10
    1084:	00078693          	mv	a3,a5
    1088:	fb042783          	lw	a5,-80(s0)
    108c:	01f7d713          	srli	a4,a5,0x1f
    1090:	00f707b3          	add	a5,a4,a5
    1094:	4017d793          	srai	a5,a5,0x1
    1098:	40f007b3          	neg	a5,a5
    109c:	00f687b3          	add	a5,a3,a5
    10a0:	faf42423          	sw	a5,-88(s0)
    10a4:	00100793          	li	a5,1
    10a8:	faf42c23          	sw	a5,-72(s0)
    10ac:	00100793          	li	a5,1
    10b0:	faf42a23          	sw	a5,-76(s0)
    10b4:	4c9000ef          	jal	1d7c <clearBuffer>
    10b8:	fff00793          	li	a5,-1
    10bc:	fef42223          	sw	a5,-28(s0)
    10c0:	fe042623          	sw	zero,-20(s0)
    10c4:	0540006f          	j	1118 <runGameLoop+0x224>
    10c8:	fec42703          	lw	a4,-20(s0)
    10cc:	00300793          	li	a5,3
    10d0:	00f71a63          	bne	a4,a5,10e4 <runGameLoop+0x1f0>
    10d4:	fe442583          	lw	a1,-28(s0)
    10d8:	fec42503          	lw	a0,-20(s0)
    10dc:	151000ef          	jal	1a2c <set_display>
    10e0:	02c0006f          	j	110c <runGameLoop+0x218>
    10e4:	fec42703          	lw	a4,-20(s0)
    10e8:	00200793          	li	a5,2
    10ec:	00f71a63          	bne	a4,a5,1100 <runGameLoop+0x20c>
    10f0:	fe442583          	lw	a1,-28(s0)
    10f4:	fec42503          	lw	a0,-20(s0)
    10f8:	135000ef          	jal	1a2c <set_display>
    10fc:	0100006f          	j	110c <runGameLoop+0x218>
    1100:	00000593          	li	a1,0
    1104:	fec42503          	lw	a0,-20(s0)
    1108:	125000ef          	jal	1a2c <set_display>
    110c:	fec42783          	lw	a5,-20(s0)
    1110:	00178793          	addi	a5,a5,1
    1114:	fef42623          	sw	a5,-20(s0)
    1118:	fec42703          	lw	a4,-20(s0)
    111c:	00500793          	li	a5,5
    1120:	fae7d4e3          	bge	a5,a4,10c8 <runGameLoop+0x1d4>
    1124:	30300513          	li	a0,771
    1128:	0cd000ef          	jal	19f4 <set_leds>
    112c:	14c0006f          	j	1278 <runGameLoop+0x384>
    1130:	000027b7          	lui	a5,0x2
    1134:	3367c783          	lbu	a5,822(a5) # 2336 <nextFrame>
    1138:	0ff7f793          	zext.b	a5,a5
    113c:	12078e63          	beqz	a5,1278 <runGameLoop+0x384>
    1140:	f7c40793          	addi	a5,s0,-132
    1144:	00078513          	mv	a0,a5
    1148:	838ff0ef          	jal	180 <reset_counters>
    114c:	fa440693          	addi	a3,s0,-92
    1150:	fbc40713          	addi	a4,s0,-68
    1154:	fd040793          	addi	a5,s0,-48
    1158:	00068613          	mv	a2,a3
    115c:	00070593          	mv	a1,a4
    1160:	00078513          	mv	a0,a5
    1164:	cd0ff0ef          	jal	634 <clearMovingElements>
    1168:	fa440693          	addi	a3,s0,-92
    116c:	fbc40713          	addi	a4,s0,-68
    1170:	fd040793          	addi	a5,s0,-48
    1174:	00068613          	mv	a2,a3
    1178:	00070593          	mv	a1,a4
    117c:	00078513          	mv	a0,a5
    1180:	f5cff0ef          	jal	8dc <input>
    1184:	fd040793          	addi	a5,s0,-48
    1188:	00078513          	mv	a0,a5
    118c:	945ff0ef          	jal	ad0 <paddleMovement>
    1190:	fbc40793          	addi	a5,s0,-68
    1194:	00078513          	mv	a0,a5
    1198:	939ff0ef          	jal	ad0 <paddleMovement>
    119c:	fa440793          	addi	a5,s0,-92
    11a0:	00078513          	mv	a0,a5
    11a4:	b19ff0ef          	jal	cbc <ballMovement>
    11a8:	fa440713          	addi	a4,s0,-92
    11ac:	fd040793          	addi	a5,s0,-48
    11b0:	00070593          	mv	a1,a4
    11b4:	00078513          	mv	a0,a5
    11b8:	c21ff0ef          	jal	dd8 <paddleCollision>
    11bc:	fa440713          	addi	a4,s0,-92
    11c0:	fbc40793          	addi	a5,s0,-68
    11c4:	00070593          	mv	a1,a4
    11c8:	00078513          	mv	a0,a5
    11cc:	c0dff0ef          	jal	dd8 <paddleCollision>
    11d0:	fa440693          	addi	a3,s0,-92
    11d4:	fbc40713          	addi	a4,s0,-68
    11d8:	fd040793          	addi	a5,s0,-48
    11dc:	00068613          	mv	a2,a3
    11e0:	00070593          	mv	a1,a4
    11e4:	00078513          	mv	a0,a5
    11e8:	d88ff0ef          	jal	770 <drawMovingElements>
    11ec:	000027b7          	lui	a5,0x2
    11f0:	32078b23          	sb	zero,822(a5) # 2336 <nextFrame>
    11f4:	f5440793          	addi	a5,s0,-172
    11f8:	00078513          	mv	a0,a5
    11fc:	fd9fe0ef          	jal	1d4 <read_counters>
    1200:	000027b7          	lui	a5,0x2
    1204:	3287c783          	lbu	a5,808(a5) # 2328 <prints>
    1208:	08078a63          	beqz	a5,129c <runGameLoop+0x3a8>
    120c:	000027b7          	lui	a5,0x2
    1210:	32078423          	sb	zero,808(a5) # 2328 <prints>
    1214:	fe042423          	sw	zero,-24(s0)
    1218:	0500006f          	j	1268 <runGameLoop+0x374>
    121c:	fe842783          	lw	a5,-24(s0)
    1220:	00279793          	slli	a5,a5,0x2
    1224:	ff078793          	addi	a5,a5,-16
    1228:	008787b3          	add	a5,a5,s0
    122c:	f647a703          	lw	a4,-156(a5)
    1230:	fe842783          	lw	a5,-24(s0)
    1234:	00279793          	slli	a5,a5,0x2
    1238:	ff078793          	addi	a5,a5,-16
    123c:	008787b3          	add	a5,a5,s0
    1240:	f8c7a783          	lw	a5,-116(a5)
    1244:	40f707b3          	sub	a5,a4,a5
    1248:	00078513          	mv	a0,a5
    124c:	8a0ff0ef          	jal	2ec <print_dec>
    1250:	000027b7          	lui	a5,0x2
    1254:	3d078513          	addi	a0,a5,976 # 23d0 <score2+0x8c>
    1258:	83cff0ef          	jal	294 <print>
    125c:	fe842783          	lw	a5,-24(s0)
    1260:	00178793          	addi	a5,a5,1
    1264:	fef42423          	sw	a5,-24(s0)
    1268:	fe842703          	lw	a4,-24(s0)
    126c:	00900793          	li	a5,9
    1270:	fae7d6e3          	bge	a5,a4,121c <runGameLoop+0x328>
    1274:	0280006f          	j	129c <runGameLoop+0x3a8>
    1278:	000027b7          	lui	a5,0x2
    127c:	33c7a703          	lw	a4,828(a5) # 233c <gameState>
    1280:	00100793          	li	a5,1
    1284:	eaf706e3          	beq	a4,a5,1130 <runGameLoop+0x23c>
    1288:	000027b7          	lui	a5,0x2
    128c:	33c7a703          	lw	a4,828(a5) # 233c <gameState>
    1290:	00200793          	li	a5,2
    1294:	e8f70ee3          	beq	a4,a5,1130 <runGameLoop+0x23c>
    1298:	0080006f          	j	12a0 <runGameLoop+0x3ac>
    129c:	00000013          	nop
    12a0:	00000013          	nop
    12a4:	0ac12083          	lw	ra,172(sp)
    12a8:	0a812403          	lw	s0,168(sp)
    12ac:	0b010113          	addi	sp,sp,176
    12b0:	00008067          	ret

000012b4 <hex2asc>:
    12b4:	00400513          	li	a0,4
    12b8:	ffc10113          	addi	sp,sp,-4
    12bc:	00112023          	sw	ra,0(sp)
    12c0:	018000ef          	jal	12d8 <hexasc>
    12c4:	00b00893          	li	a7,11
    12c8:	00000073          	ecall
    12cc:	00012083          	lw	ra,0(sp)
    12d0:	00410113          	addi	sp,sp,4
    12d4:	00008067          	ret

000012d8 <hexasc>:
    12d8:	00f57513          	andi	a0,a0,15
    12dc:	00a00293          	li	t0,10
    12e0:	00555663          	bge	a0,t0,12ec <letter>
    12e4:	03050513          	addi	a0,a0,48
    12e8:	0080006f          	j	12f0 <continue>

000012ec <letter>:
    12ec:	03750513          	addi	a0,a0,55

000012f0 <continue>:
    12f0:	00008067          	ret

000012f4 <main>:
    12f4:	fe010113          	addi	sp,sp,-32
    12f8:	00112e23          	sw	ra,28(sp)
    12fc:	00812c23          	sw	s0,24(sp)
    1300:	02010413          	addi	s0,sp,32
    1304:	67c000ef          	jal	1980 <labinit>
    1308:	000027b7          	lui	a5,0x2
    130c:	3307a783          	lw	a5,816(a5) # 2330 <DMA_Control>
    1310:	00878793          	addi	a5,a5,8
    1314:	0007a783          	lw	a5,0(a5)
    1318:	01079713          	slli	a4,a5,0x10
    131c:	01075713          	srli	a4,a4,0x10
    1320:	000027b7          	lui	a5,0x2
    1324:	32e79c23          	sh	a4,824(a5) # 2338 <SCREEN_WIDTH>
    1328:	000027b7          	lui	a5,0x2
    132c:	3307a783          	lw	a5,816(a5) # 2330 <DMA_Control>
    1330:	00878793          	addi	a5,a5,8
    1334:	0007a783          	lw	a5,0(a5)
    1338:	4107d793          	srai	a5,a5,0x10
    133c:	01079713          	slli	a4,a5,0x10
    1340:	01075713          	srli	a4,a4,0x10
    1344:	000027b7          	lui	a5,0x2
    1348:	32e79d23          	sh	a4,826(a5) # 233a <SCREEN_HEIGHT>
    134c:	000027b7          	lui	a5,0x2
    1350:	3207ae23          	sw	zero,828(a5) # 233c <gameState>
    1354:	000027b7          	lui	a5,0x2
    1358:	33c7a783          	lw	a5,828(a5) # 233c <gameState>
    135c:	00079463          	bnez	a5,1364 <main+0x70>
    1360:	084000ef          	jal	13e4 <menuInteraction>
    1364:	000027b7          	lui	a5,0x2
    1368:	33c7a703          	lw	a4,828(a5) # 233c <gameState>
    136c:	00100793          	li	a5,1
    1370:	00f70a63          	beq	a4,a5,1384 <main+0x90>
    1374:	000027b7          	lui	a5,0x2
    1378:	33c7a703          	lw	a4,828(a5) # 233c <gameState>
    137c:	00200793          	li	a5,2
    1380:	00f71463          	bne	a4,a5,1388 <main+0x94>
    1384:	b71ff0ef          	jal	ef4 <runGameLoop>
    1388:	000027b7          	lui	a5,0x2
    138c:	33c7a703          	lw	a4,828(a5) # 233c <gameState>
    1390:	00300793          	li	a5,3
    1394:	fcf710e3          	bne	a4,a5,1354 <main+0x60>
    1398:	1e5000ef          	jal	1d7c <clearBuffer>
    139c:	000027b7          	lui	a5,0x2
    13a0:	3407a703          	lw	a4,832(a5) # 2340 <score1>
    13a4:	000027b7          	lui	a5,0x2
    13a8:	3447a783          	lw	a5,836(a5) # 2344 <score2>
    13ac:	00e7d863          	bge	a5,a4,13bc <main+0xc8>
    13b0:	000027b7          	lui	a5,0x2
    13b4:	3d478793          	addi	a5,a5,980 # 23d4 <score2+0x90>
    13b8:	00c0006f          	j	13c4 <main+0xd0>
    13bc:	000027b7          	lui	a5,0x2
    13c0:	3e478793          	addi	a5,a5,996 # 23e4 <score2+0xa0>
    13c4:	fef42623          	sw	a5,-20(s0)
    13c8:	fec42503          	lw	a0,-20(s0)
    13cc:	259000ef          	jal	1e24 <stringLength>
    13d0:	00050793          	mv	a5,a0
    13d4:	00078593          	mv	a1,a5
    13d8:	fec42503          	lw	a0,-20(s0)
    13dc:	2b0000ef          	jal	168c <drawWinner>
    13e0:	f75ff06f          	j	1354 <main+0x60>

000013e4 <menuInteraction>:
    13e4:	fd010113          	addi	sp,sp,-48
    13e8:	02112623          	sw	ra,44(sp)
    13ec:	02812423          	sw	s0,40(sp)
    13f0:	03010413          	addi	s0,sp,48
    13f4:	fe042223          	sw	zero,-28(s0)
    13f8:	00100793          	li	a5,1
    13fc:	fef42023          	sw	a5,-32(s0)
    1400:	fe442783          	lw	a5,-28(s0)
    1404:	fef42623          	sw	a5,-20(s0)
    1408:	fe042423          	sw	zero,-24(s0)
    140c:	0b40006f          	j	14c0 <menuInteraction+0xdc>
    1410:	000027b7          	lui	a5,0x2
    1414:	3367c783          	lbu	a5,822(a5) # 2336 <nextFrame>
    1418:	0ff7f793          	zext.b	a5,a5
    141c:	0a078263          	beqz	a5,14c0 <menuInteraction+0xdc>
    1420:	000027b7          	lui	a5,0x2
    1424:	32078b23          	sb	zero,822(a5) # 2336 <nextFrame>
    1428:	714000ef          	jal	1b3c <get_sw>
    142c:	fca42e23          	sw	a0,-36(s0)
    1430:	fdc42783          	lw	a5,-36(s0)
    1434:	0017f793          	andi	a5,a5,1
    1438:	fcf42c23          	sw	a5,-40(s0)
    143c:	fd842783          	lw	a5,-40(s0)
    1440:	02078663          	beqz	a5,146c <menuInteraction+0x88>
    1444:	fe842783          	lw	a5,-24(s0)
    1448:	02079263          	bnez	a5,146c <menuInteraction+0x88>
    144c:	fec42783          	lw	a5,-20(s0)
    1450:	00178713          	addi	a4,a5,1
    1454:	41f75793          	srai	a5,a4,0x1f
    1458:	01f7d793          	srli	a5,a5,0x1f
    145c:	00f70733          	add	a4,a4,a5
    1460:	00177713          	andi	a4,a4,1
    1464:	40f707b3          	sub	a5,a4,a5
    1468:	fef42623          	sw	a5,-20(s0)
    146c:	fd842783          	lw	a5,-40(s0)
    1470:	fef42423          	sw	a5,-24(s0)
    1474:	6fc000ef          	jal	1b70 <get_btn>
    1478:	fca42a23          	sw	a0,-44(s0)
    147c:	fd442783          	lw	a5,-44(s0)
    1480:	02078c63          	beqz	a5,14b8 <menuInteraction+0xd4>
    1484:	fec42703          	lw	a4,-20(s0)
    1488:	fe442783          	lw	a5,-28(s0)
    148c:	00f71a63          	bne	a4,a5,14a0 <menuInteraction+0xbc>
    1490:	000027b7          	lui	a5,0x2
    1494:	00100713          	li	a4,1
    1498:	32e7ae23          	sw	a4,828(a5) # 233c <gameState>
    149c:	01c0006f          	j	14b8 <menuInteraction+0xd4>
    14a0:	fec42703          	lw	a4,-20(s0)
    14a4:	fe042783          	lw	a5,-32(s0)
    14a8:	00f71863          	bne	a4,a5,14b8 <menuInteraction+0xd4>
    14ac:	000027b7          	lui	a5,0x2
    14b0:	00200713          	li	a4,2
    14b4:	32e7ae23          	sw	a4,828(a5) # 233c <gameState>
    14b8:	fec42503          	lw	a0,-20(s0)
    14bc:	0b8000ef          	jal	1574 <drawMenu>
    14c0:	000027b7          	lui	a5,0x2
    14c4:	33c7a783          	lw	a5,828(a5) # 233c <gameState>
    14c8:	f40784e3          	beqz	a5,1410 <menuInteraction+0x2c>
    14cc:	00000013          	nop
    14d0:	00000013          	nop
    14d4:	02c12083          	lw	ra,44(sp)
    14d8:	02812403          	lw	s0,40(sp)
    14dc:	03010113          	addi	sp,sp,48
    14e0:	00008067          	ret

000014e4 <drawMenuItem>:
    14e4:	fd010113          	addi	sp,sp,-48
    14e8:	02112623          	sw	ra,44(sp)
    14ec:	02812423          	sw	s0,40(sp)
    14f0:	03010413          	addi	s0,sp,48
    14f4:	fca42e23          	sw	a0,-36(s0)
    14f8:	fcb42c23          	sw	a1,-40(s0)
    14fc:	fe042623          	sw	zero,-20(s0)
    1500:	fe0405a3          	sb	zero,-21(s0)
    1504:	0440006f          	j	1548 <drawMenuItem+0x64>
    1508:	fec42783          	lw	a5,-20(s0)
    150c:	00379793          	slli	a5,a5,0x3
    1510:	00a78513          	addi	a0,a5,10
    1514:	fd842783          	lw	a5,-40(s0)
    1518:	00379593          	slli	a1,a5,0x3
    151c:	fec42783          	lw	a5,-20(s0)
    1520:	fdc42703          	lw	a4,-36(s0)
    1524:	00f707b3          	add	a5,a4,a5
    1528:	0007c783          	lbu	a5,0(a5)
    152c:	feb44703          	lbu	a4,-21(s0)
    1530:	0ff00693          	li	a3,255
    1534:	00078613          	mv	a2,a5
    1538:	66c000ef          	jal	1ba4 <drawCharacter>
    153c:	fec42783          	lw	a5,-20(s0)
    1540:	00178793          	addi	a5,a5,1
    1544:	fef42623          	sw	a5,-20(s0)
    1548:	fec42783          	lw	a5,-20(s0)
    154c:	fdc42703          	lw	a4,-36(s0)
    1550:	00f707b3          	add	a5,a4,a5
    1554:	0007c783          	lbu	a5,0(a5)
    1558:	fa0798e3          	bnez	a5,1508 <drawMenuItem+0x24>
    155c:	00000013          	nop
    1560:	00000013          	nop
    1564:	02c12083          	lw	ra,44(sp)
    1568:	02812403          	lw	s0,40(sp)
    156c:	03010113          	addi	sp,sp,48
    1570:	00008067          	ret

00001574 <drawMenu>:
    1574:	fc010113          	addi	sp,sp,-64
    1578:	02112e23          	sw	ra,60(sp)
    157c:	02812c23          	sw	s0,56(sp)
    1580:	04010413          	addi	s0,sp,64
    1584:	fca42623          	sw	a0,-52(s0)
    1588:	00100513          	li	a0,1
    158c:	468000ef          	jal	19f4 <set_leds>
    1590:	00200793          	li	a5,2
    1594:	fef42223          	sw	a5,-28(s0)
    1598:	fe000793          	li	a5,-32
    159c:	fef401a3          	sb	a5,-29(s0)
    15a0:	fe042623          	sw	zero,-20(s0)
    15a4:	06c0006f          	j	1610 <drawMenu+0x9c>
    15a8:	fec42703          	lw	a4,-20(s0)
    15ac:	fcc42783          	lw	a5,-52(s0)
    15b0:	02f71863          	bne	a4,a5,15e0 <drawMenu+0x6c>
    15b4:	fec42783          	lw	a5,-20(s0)
    15b8:	00379593          	slli	a1,a5,0x3
    15bc:	000027b7          	lui	a5,0x2
    15c0:	3387d783          	lhu	a5,824(a5) # 2338 <SCREEN_WIDTH>
    15c4:	00078613          	mv	a2,a5
    15c8:	fe344783          	lbu	a5,-29(s0)
    15cc:	00078713          	mv	a4,a5
    15d0:	00800693          	li	a3,8
    15d4:	00000513          	li	a0,0
    15d8:	6e4000ef          	jal	1cbc <drawRectangle>
    15dc:	0280006f          	j	1604 <drawMenu+0x90>
    15e0:	fec42783          	lw	a5,-20(s0)
    15e4:	00379593          	slli	a1,a5,0x3
    15e8:	000027b7          	lui	a5,0x2
    15ec:	3387d783          	lhu	a5,824(a5) # 2338 <SCREEN_WIDTH>
    15f0:	00000713          	li	a4,0
    15f4:	00800693          	li	a3,8
    15f8:	00078613          	mv	a2,a5
    15fc:	00000513          	li	a0,0
    1600:	6bc000ef          	jal	1cbc <drawRectangle>
    1604:	fec42783          	lw	a5,-20(s0)
    1608:	00178793          	addi	a5,a5,1
    160c:	fef42623          	sw	a5,-20(s0)
    1610:	fec42703          	lw	a4,-20(s0)
    1614:	fe442783          	lw	a5,-28(s0)
    1618:	f8f748e3          	blt	a4,a5,15a8 <drawMenu+0x34>
    161c:	000027b7          	lui	a5,0x2
    1620:	3f478793          	addi	a5,a5,1012 # 23f4 <score2+0xb0>
    1624:	fcf42c23          	sw	a5,-40(s0)
    1628:	000027b7          	lui	a5,0x2
    162c:	40878793          	addi	a5,a5,1032 # 2408 <score2+0xc4>
    1630:	fcf42e23          	sw	a5,-36(s0)
    1634:	fe042423          	sw	zero,-24(s0)
    1638:	0300006f          	j	1668 <drawMenu+0xf4>
    163c:	fe842783          	lw	a5,-24(s0)
    1640:	00279793          	slli	a5,a5,0x2
    1644:	ff078793          	addi	a5,a5,-16
    1648:	008787b3          	add	a5,a5,s0
    164c:	fe87a783          	lw	a5,-24(a5)
    1650:	fe842583          	lw	a1,-24(s0)
    1654:	00078513          	mv	a0,a5
    1658:	e8dff0ef          	jal	14e4 <drawMenuItem>
    165c:	fe842783          	lw	a5,-24(s0)
    1660:	00178793          	addi	a5,a5,1
    1664:	fef42423          	sw	a5,-24(s0)
    1668:	fe842703          	lw	a4,-24(s0)
    166c:	fe442783          	lw	a5,-28(s0)
    1670:	fcf746e3          	blt	a4,a5,163c <drawMenu+0xc8>
    1674:	770000ef          	jal	1de4 <frameBuffer>
    1678:	00000013          	nop
    167c:	03c12083          	lw	ra,60(sp)
    1680:	03812403          	lw	s0,56(sp)
    1684:	04010113          	addi	sp,sp,64
    1688:	00008067          	ret

0000168c <drawWinner>:
    168c:	fd010113          	addi	sp,sp,-48
    1690:	02112623          	sw	ra,44(sp)
    1694:	02812423          	sw	s0,40(sp)
    1698:	03010413          	addi	s0,sp,48
    169c:	fca42e23          	sw	a0,-36(s0)
    16a0:	fcb42c23          	sw	a1,-40(s0)
    16a4:	fe042623          	sw	zero,-20(s0)
    16a8:	00100793          	li	a5,1
    16ac:	fef405a3          	sb	a5,-21(s0)
    16b0:	0800006f          	j	1730 <drawWinner+0xa4>
    16b4:	000027b7          	lui	a5,0x2
    16b8:	3387d783          	lhu	a5,824(a5) # 2338 <SCREEN_WIDTH>
    16bc:	0017d793          	srli	a5,a5,0x1
    16c0:	01079793          	slli	a5,a5,0x10
    16c4:	0107d793          	srli	a5,a5,0x10
    16c8:	00078713          	mv	a4,a5
    16cc:	fd842783          	lw	a5,-40(s0)
    16d0:	00379793          	slli	a5,a5,0x3
    16d4:	40f707b3          	sub	a5,a4,a5
    16d8:	fef42223          	sw	a5,-28(s0)
    16dc:	fec42783          	lw	a5,-20(s0)
    16e0:	00479713          	slli	a4,a5,0x4
    16e4:	fe442783          	lw	a5,-28(s0)
    16e8:	00f70533          	add	a0,a4,a5
    16ec:	000027b7          	lui	a5,0x2
    16f0:	33a7d783          	lhu	a5,826(a5) # 233a <SCREEN_HEIGHT>
    16f4:	0017d793          	srli	a5,a5,0x1
    16f8:	01079793          	slli	a5,a5,0x10
    16fc:	0107d793          	srli	a5,a5,0x10
    1700:	ff878593          	addi	a1,a5,-8
    1704:	fec42783          	lw	a5,-20(s0)
    1708:	fdc42703          	lw	a4,-36(s0)
    170c:	00f707b3          	add	a5,a4,a5
    1710:	0007c783          	lbu	a5,0(a5)
    1714:	feb44703          	lbu	a4,-21(s0)
    1718:	0e000693          	li	a3,224
    171c:	00078613          	mv	a2,a5
    1720:	484000ef          	jal	1ba4 <drawCharacter>
    1724:	fec42783          	lw	a5,-20(s0)
    1728:	00178793          	addi	a5,a5,1
    172c:	fef42623          	sw	a5,-20(s0)
    1730:	fec42783          	lw	a5,-20(s0)
    1734:	fdc42703          	lw	a4,-36(s0)
    1738:	00f707b3          	add	a5,a4,a5
    173c:	0007c783          	lbu	a5,0(a5)
    1740:	f6079ae3          	bnez	a5,16b4 <drawWinner+0x28>
    1744:	000027b7          	lui	a5,0x2
    1748:	71078513          	addi	a0,a5,1808 # 2710 <score2+0x3cc>
    174c:	130000ef          	jal	187c <delay>
    1750:	62c000ef          	jal	1d7c <clearBuffer>
    1754:	000027b7          	lui	a5,0x2
    1758:	3207ae23          	sw	zero,828(a5) # 233c <gameState>
    175c:	00000013          	nop
    1760:	02c12083          	lw	ra,44(sp)
    1764:	02812403          	lw	s0,40(sp)
    1768:	03010113          	addi	sp,sp,48
    176c:	00008067          	ret

00001770 <display_string>:
    1770:	00400893          	li	a7,4
    1774:	00000073          	ecall
    1778:	00a00513          	li	a0,10
    177c:	00b00893          	li	a7,11
    1780:	00000073          	ecall
    1784:	00008067          	ret

00001788 <timetemplate>:
    1788:	00000517          	auipc	a0,0x0
    178c:	78050513          	addi	a0,a0,1920 # 1f08 <timstr>
    1790:	fe1ff0ef          	jal	1770 <display_string>
    1794:	3e800513          	li	a0,1000
    1798:	0e4000ef          	jal	187c <delay>
    179c:	00000517          	auipc	a0,0x0
    17a0:	76850513          	addi	a0,a0,1896 # 1f04 <mytime>
    17a4:	020000ef          	jal	17c4 <tick>
    17a8:	00000517          	auipc	a0,0x0
    17ac:	76050513          	addi	a0,a0,1888 # 1f08 <timstr>
    17b0:	00000297          	auipc	t0,0x0
    17b4:	75428293          	addi	t0,t0,1876 # 1f04 <mytime>
    17b8:	0002a583          	lw	a1,0(t0)
    17bc:	0e4000ef          	jal	18a0 <time2string>
    17c0:	fc9ff06f          	j	1788 <timetemplate>

000017c4 <tick>:
    17c4:	00052283          	lw	t0,0(a0)
    17c8:	00128293          	addi	t0,t0,1
    17cc:	00f2f313          	andi	t1,t0,15
    17d0:	00a33393          	sltiu	t2,t1,10
    17d4:	06039063          	bnez	t2,1834 <tiend>
    17d8:	00628293          	addi	t0,t0,6
    17dc:	0f02f313          	andi	t1,t0,240
    17e0:	06033393          	sltiu	t2,t1,96
    17e4:	04039863          	bnez	t2,1834 <tiend>
    17e8:	0a028293          	addi	t0,t0,160
    17ec:	00f00e13          	li	t3,15
    17f0:	008e1e13          	slli	t3,t3,0x8
    17f4:	01c2f333          	and	t1,t0,t3
    17f8:	00a00e13          	li	t3,10
    17fc:	008e1e13          	slli	t3,t3,0x8
    1800:	01c323b3          	slt	t2,t1,t3
    1804:	02039863          	bnez	t2,1834 <tiend>
    1808:	60028293          	addi	t0,t0,1536
    180c:	00f00e13          	li	t3,15
    1810:	00ce1e13          	slli	t3,t3,0xc
    1814:	01c2f333          	and	t1,t0,t3
    1818:	00600e13          	li	t3,6
    181c:	00ce1e13          	slli	t3,t3,0xc
    1820:	01c323b3          	slt	t2,t1,t3
    1824:	00039863          	bnez	t2,1834 <tiend>
    1828:	00a00e13          	li	t3,10
    182c:	00ce1e13          	slli	t3,t3,0xc
    1830:	01c282b3          	add	t0,t0,t3

00001834 <tiend>:
    1834:	00552023          	sw	t0,0(a0)
    1838:	00008067          	ret

0000183c <hex2asc>:
    183c:	00400513          	li	a0,4
    1840:	ffc10113          	addi	sp,sp,-4
    1844:	00112023          	sw	ra,0(sp)
    1848:	018000ef          	jal	1860 <hexasc>
    184c:	00b00893          	li	a7,11
    1850:	00000073          	ecall
    1854:	00012083          	lw	ra,0(sp)
    1858:	00410113          	addi	sp,sp,4
    185c:	00008067          	ret

00001860 <hexasc>:
    1860:	00f57513          	andi	a0,a0,15
    1864:	00a00293          	li	t0,10
    1868:	00555663          	bge	a0,t0,1874 <letter>
    186c:	03050513          	addi	a0,a0,48
    1870:	0080006f          	j	1878 <continue>

00001874 <letter>:
    1874:	03750513          	addi	a0,a0,55

00001878 <continue>:
    1878:	00008067          	ret

0000187c <delay>:
    187c:	00002337          	lui	t1,0x2
    1880:	71030313          	addi	t1,t1,1808 # 2710 <score2+0x3cc>

00001884 <while>:
    1884:	00a05c63          	blez	a0,189c <done>
    1888:	fff50513          	addi	a0,a0,-1
    188c:	00000293          	li	t0,0

00001890 <for>:
    1890:	fe62dae3          	bge	t0,t1,1884 <while>
    1894:	00128293          	addi	t0,t0,1
    1898:	ff9ff06f          	j	1890 <for>

0000189c <done>:
    189c:	00008067          	ret

000018a0 <time2string>:
    18a0:	ffc10113          	addi	sp,sp,-4
    18a4:	00812023          	sw	s0,0(sp)
    18a8:	ffc10113          	addi	sp,sp,-4
    18ac:	00912023          	sw	s1,0(sp)
    18b0:	ffc10113          	addi	sp,sp,-4
    18b4:	00112023          	sw	ra,0(sp)
    18b8:	00050413          	mv	s0,a0
    18bc:	00058493          	mv	s1,a1
    18c0:	00c4d513          	srli	a0,s1,0xc
    18c4:	f9dff0ef          	jal	1860 <hexasc>
    18c8:	00a40023          	sb	a0,0(s0)
    18cc:	0084d513          	srli	a0,s1,0x8
    18d0:	f91ff0ef          	jal	1860 <hexasc>
    18d4:	00a400a3          	sb	a0,1(s0)
    18d8:	03a00293          	li	t0,58
    18dc:	00540123          	sb	t0,2(s0)
    18e0:	0044d513          	srli	a0,s1,0x4
    18e4:	f7dff0ef          	jal	1860 <hexasc>
    18e8:	00a401a3          	sb	a0,3(s0)
    18ec:	00048513          	mv	a0,s1
    18f0:	f71ff0ef          	jal	1860 <hexasc>
    18f4:	00a40223          	sb	a0,4(s0)
    18f8:	0014f513          	andi	a0,s1,1
    18fc:	00050a63          	beqz	a0,1910 <even>
    1900:	00d00513          	li	a0,13
    1904:	f5dff0ef          	jal	1860 <hexasc>
    1908:	00a402a3          	sb	a0,5(s0)
    190c:	0100006f          	j	191c <cont>

00001910 <even>:
    1910:	00e00513          	li	a0,14
    1914:	f4dff0ef          	jal	1860 <hexasc>
    1918:	00a402a3          	sb	a0,5(s0)

0000191c <cont>:
    191c:	00000513          	li	a0,0
    1920:	00a40323          	sb	a0,6(s0)
    1924:	00012083          	lw	ra,0(sp)
    1928:	00410113          	addi	sp,sp,4
    192c:	00012483          	lw	s1,0(sp)
    1930:	00410113          	addi	sp,sp,4
    1934:	00012403          	lw	s0,0(sp)
    1938:	00410113          	addi	sp,sp,4
    193c:	00008067          	ret

00001940 <handle_interrupt>:
    1940:	fd010113          	addi	sp,sp,-48
    1944:	02812623          	sw	s0,44(sp)
    1948:	03010413          	addi	s0,sp,48
    194c:	fca42e23          	sw	a0,-36(s0)
    1950:	040007b7          	lui	a5,0x4000
    1954:	02078793          	addi	a5,a5,32 # 4000020 <_stack_end+0x3efdbdc>
    1958:	fef42623          	sw	a5,-20(s0)
    195c:	fec42783          	lw	a5,-20(s0)
    1960:	00079023          	sh	zero,0(a5)
    1964:	000027b7          	lui	a5,0x2
    1968:	00100713          	li	a4,1
    196c:	32e78b23          	sb	a4,822(a5) # 2336 <nextFrame>
    1970:	00000013          	nop
    1974:	02c12403          	lw	s0,44(sp)
    1978:	03010113          	addi	sp,sp,48
    197c:	00008067          	ret

00001980 <labinit>:
    1980:	fe010113          	addi	sp,sp,-32
    1984:	00112e23          	sw	ra,28(sp)
    1988:	00812c23          	sw	s0,24(sp)
    198c:	02010413          	addi	s0,sp,32
    1990:	040007b7          	lui	a5,0x4000
    1994:	02878793          	addi	a5,a5,40 # 4000028 <_stack_end+0x3efdbe4>
    1998:	fef42623          	sw	a5,-20(s0)
    199c:	040007b7          	lui	a5,0x4000
    19a0:	02c78793          	addi	a5,a5,44 # 400002c <_stack_end+0x3efdbe8>
    19a4:	fef42423          	sw	a5,-24(s0)
    19a8:	fec42783          	lw	a5,-20(s0)
    19ac:	ffffa737          	lui	a4,0xffffa
    19b0:	11f70713          	addi	a4,a4,287 # ffffa11f <_stack_end+0xffef7cdb>
    19b4:	00e79023          	sh	a4,0(a5)
    19b8:	fe842783          	lw	a5,-24(s0)
    19bc:	00700713          	li	a4,7
    19c0:	00e79023          	sh	a4,0(a5)
    19c4:	040007b7          	lui	a5,0x4000
    19c8:	02478793          	addi	a5,a5,36 # 4000024 <_stack_end+0x3efdbe0>
    19cc:	fef42223          	sw	a5,-28(s0)
    19d0:	fe442783          	lw	a5,-28(s0)
    19d4:	00700713          	li	a4,7
    19d8:	00e79023          	sh	a4,0(a5)
    19dc:	f98fe0ef          	jal	174 <enable_interrupt>
    19e0:	00000013          	nop
    19e4:	01c12083          	lw	ra,28(sp)
    19e8:	01812403          	lw	s0,24(sp)
    19ec:	02010113          	addi	sp,sp,32
    19f0:	00008067          	ret

000019f4 <set_leds>:
    19f4:	fd010113          	addi	sp,sp,-48
    19f8:	02812623          	sw	s0,44(sp)
    19fc:	03010413          	addi	s0,sp,48
    1a00:	fca42e23          	sw	a0,-36(s0)
    1a04:	040007b7          	lui	a5,0x4000
    1a08:	fef42623          	sw	a5,-20(s0)
    1a0c:	fdc42783          	lw	a5,-36(s0)
    1a10:	3ff7f713          	andi	a4,a5,1023
    1a14:	fec42783          	lw	a5,-20(s0)
    1a18:	00e7a023          	sw	a4,0(a5) # 4000000 <_stack_end+0x3efdbbc>
    1a1c:	00000013          	nop
    1a20:	02c12403          	lw	s0,44(sp)
    1a24:	03010113          	addi	sp,sp,48
    1a28:	00008067          	ret

00001a2c <set_display>:
    1a2c:	fd010113          	addi	sp,sp,-48
    1a30:	02812623          	sw	s0,44(sp)
    1a34:	03010413          	addi	s0,sp,48
    1a38:	fca42e23          	sw	a0,-36(s0)
    1a3c:	fcb42c23          	sw	a1,-40(s0)
    1a40:	fdc42703          	lw	a4,-36(s0)
    1a44:	004007b7          	lui	a5,0x400
    1a48:	00578793          	addi	a5,a5,5 # 400005 <_stack_end+0x2fdbc1>
    1a4c:	00f707b3          	add	a5,a4,a5
    1a50:	00479793          	slli	a5,a5,0x4
    1a54:	fef42623          	sw	a5,-20(s0)
    1a58:	fd842783          	lw	a5,-40(s0)
    1a5c:	00178793          	addi	a5,a5,1
    1a60:	00a00713          	li	a4,10
    1a64:	0cf76463          	bltu	a4,a5,1b2c <set_display+0x100>
    1a68:	00279713          	slli	a4,a5,0x2
    1a6c:	000027b7          	lui	a5,0x2
    1a70:	41878793          	addi	a5,a5,1048 # 2418 <score2+0xd4>
    1a74:	00f707b3          	add	a5,a4,a5
    1a78:	0007a783          	lw	a5,0(a5)
    1a7c:	00078067          	jr	a5
    1a80:	fec42783          	lw	a5,-20(s0)
    1a84:	0ff00713          	li	a4,255
    1a88:	00e7a023          	sw	a4,0(a5)
    1a8c:	0a40006f          	j	1b30 <set_display+0x104>
    1a90:	fec42783          	lw	a5,-20(s0)
    1a94:	04000713          	li	a4,64
    1a98:	00e7a023          	sw	a4,0(a5)
    1a9c:	0940006f          	j	1b30 <set_display+0x104>
    1aa0:	fec42783          	lw	a5,-20(s0)
    1aa4:	07900713          	li	a4,121
    1aa8:	00e7a023          	sw	a4,0(a5)
    1aac:	0840006f          	j	1b30 <set_display+0x104>
    1ab0:	fec42783          	lw	a5,-20(s0)
    1ab4:	02400713          	li	a4,36
    1ab8:	00e7a023          	sw	a4,0(a5)
    1abc:	0740006f          	j	1b30 <set_display+0x104>
    1ac0:	fec42783          	lw	a5,-20(s0)
    1ac4:	03000713          	li	a4,48
    1ac8:	00e7a023          	sw	a4,0(a5)
    1acc:	0640006f          	j	1b30 <set_display+0x104>
    1ad0:	fec42783          	lw	a5,-20(s0)
    1ad4:	01900713          	li	a4,25
    1ad8:	00e7a023          	sw	a4,0(a5)
    1adc:	0540006f          	j	1b30 <set_display+0x104>
    1ae0:	fec42783          	lw	a5,-20(s0)
    1ae4:	01200713          	li	a4,18
    1ae8:	00e7a023          	sw	a4,0(a5)
    1aec:	0440006f          	j	1b30 <set_display+0x104>
    1af0:	fec42783          	lw	a5,-20(s0)
    1af4:	00200713          	li	a4,2
    1af8:	00e7a023          	sw	a4,0(a5)
    1afc:	0340006f          	j	1b30 <set_display+0x104>
    1b00:	fec42783          	lw	a5,-20(s0)
    1b04:	07800713          	li	a4,120
    1b08:	00e7a023          	sw	a4,0(a5)
    1b0c:	0240006f          	j	1b30 <set_display+0x104>
    1b10:	fec42783          	lw	a5,-20(s0)
    1b14:	0007a023          	sw	zero,0(a5)
    1b18:	0180006f          	j	1b30 <set_display+0x104>
    1b1c:	fec42783          	lw	a5,-20(s0)
    1b20:	01000713          	li	a4,16
    1b24:	00e7a023          	sw	a4,0(a5)
    1b28:	0080006f          	j	1b30 <set_display+0x104>
    1b2c:	00000013          	nop
    1b30:	02c12403          	lw	s0,44(sp)
    1b34:	03010113          	addi	sp,sp,48
    1b38:	00008067          	ret

00001b3c <get_sw>:
    1b3c:	fe010113          	addi	sp,sp,-32
    1b40:	00812e23          	sw	s0,28(sp)
    1b44:	02010413          	addi	s0,sp,32
    1b48:	040007b7          	lui	a5,0x4000
    1b4c:	01078793          	addi	a5,a5,16 # 4000010 <_stack_end+0x3efdbcc>
    1b50:	fef42623          	sw	a5,-20(s0)
    1b54:	fec42783          	lw	a5,-20(s0)
    1b58:	0007a783          	lw	a5,0(a5)
    1b5c:	3ff7f793          	andi	a5,a5,1023
    1b60:	00078513          	mv	a0,a5
    1b64:	01c12403          	lw	s0,28(sp)
    1b68:	02010113          	addi	sp,sp,32
    1b6c:	00008067          	ret

00001b70 <get_btn>:
    1b70:	fe010113          	addi	sp,sp,-32
    1b74:	00812e23          	sw	s0,28(sp)
    1b78:	02010413          	addi	s0,sp,32
    1b7c:	040007b7          	lui	a5,0x4000
    1b80:	0d078793          	addi	a5,a5,208 # 40000d0 <_stack_end+0x3efdc8c>
    1b84:	fef42623          	sw	a5,-20(s0)
    1b88:	fec42783          	lw	a5,-20(s0)
    1b8c:	0007a783          	lw	a5,0(a5)
    1b90:	0017f793          	andi	a5,a5,1
    1b94:	00078513          	mv	a0,a5
    1b98:	01c12403          	lw	s0,28(sp)
    1b9c:	02010113          	addi	sp,sp,32
    1ba0:	00008067          	ret

00001ba4 <drawCharacter>:
    1ba4:	fd010113          	addi	sp,sp,-48
    1ba8:	02812623          	sw	s0,44(sp)
    1bac:	03010413          	addi	s0,sp,48
    1bb0:	fca42e23          	sw	a0,-36(s0)
    1bb4:	fcb42c23          	sw	a1,-40(s0)
    1bb8:	00060793          	mv	a5,a2
    1bbc:	fcf40ba3          	sb	a5,-41(s0)
    1bc0:	00068793          	mv	a5,a3
    1bc4:	fcf40b23          	sb	a5,-42(s0)
    1bc8:	00070793          	mv	a5,a4
    1bcc:	fcf40aa3          	sb	a5,-43(s0)
    1bd0:	fd544783          	lbu	a5,-43(s0)
    1bd4:	00178793          	addi	a5,a5,1
    1bd8:	fef42223          	sw	a5,-28(s0)
    1bdc:	fe042623          	sw	zero,-20(s0)
    1be0:	0b80006f          	j	1c98 <drawCharacter+0xf4>
    1be4:	fd744703          	lbu	a4,-41(s0)
    1be8:	fec42683          	lw	a3,-20(s0)
    1bec:	fe442783          	lw	a5,-28(s0)
    1bf0:	02f6c7b3          	div	a5,a3,a5
    1bf4:	000026b7          	lui	a3,0x2
    1bf8:	f2868693          	addi	a3,a3,-216 # 1f28 <font8x8_basic>
    1bfc:	00371713          	slli	a4,a4,0x3
    1c00:	00e68733          	add	a4,a3,a4
    1c04:	00f707b3          	add	a5,a4,a5
    1c08:	0007c783          	lbu	a5,0(a5)
    1c0c:	fef401a3          	sb	a5,-29(s0)
    1c10:	fe042423          	sw	zero,-24(s0)
    1c14:	0680006f          	j	1c7c <drawCharacter+0xd8>
    1c18:	fe344703          	lbu	a4,-29(s0)
    1c1c:	fe842683          	lw	a3,-24(s0)
    1c20:	fe442783          	lw	a5,-28(s0)
    1c24:	02f6c7b3          	div	a5,a3,a5
    1c28:	40f757b3          	sra	a5,a4,a5
    1c2c:	0017f793          	andi	a5,a5,1
    1c30:	04078063          	beqz	a5,1c70 <drawCharacter+0xcc>
    1c34:	000027b7          	lui	a5,0x2
    1c38:	32c7a783          	lw	a5,812(a5) # 232c <frame>
    1c3c:	fd842683          	lw	a3,-40(s0)
    1c40:	fec42703          	lw	a4,-20(s0)
    1c44:	00e68733          	add	a4,a3,a4
    1c48:	000026b7          	lui	a3,0x2
    1c4c:	3386d683          	lhu	a3,824(a3) # 2338 <SCREEN_WIDTH>
    1c50:	02d706b3          	mul	a3,a4,a3
    1c54:	fdc42703          	lw	a4,-36(s0)
    1c58:	00e686b3          	add	a3,a3,a4
    1c5c:	fe842703          	lw	a4,-24(s0)
    1c60:	00e68733          	add	a4,a3,a4
    1c64:	00e787b3          	add	a5,a5,a4
    1c68:	fd644703          	lbu	a4,-42(s0)
    1c6c:	00e78023          	sb	a4,0(a5)
    1c70:	fe842783          	lw	a5,-24(s0)
    1c74:	00178793          	addi	a5,a5,1
    1c78:	fef42423          	sw	a5,-24(s0)
    1c7c:	fe442783          	lw	a5,-28(s0)
    1c80:	00379793          	slli	a5,a5,0x3
    1c84:	fe842703          	lw	a4,-24(s0)
    1c88:	f8f748e3          	blt	a4,a5,1c18 <drawCharacter+0x74>
    1c8c:	fec42783          	lw	a5,-20(s0)
    1c90:	00178793          	addi	a5,a5,1
    1c94:	fef42623          	sw	a5,-20(s0)
    1c98:	fe442783          	lw	a5,-28(s0)
    1c9c:	00379793          	slli	a5,a5,0x3
    1ca0:	fec42703          	lw	a4,-20(s0)
    1ca4:	f4f740e3          	blt	a4,a5,1be4 <drawCharacter+0x40>
    1ca8:	00000013          	nop
    1cac:	00000013          	nop
    1cb0:	02c12403          	lw	s0,44(sp)
    1cb4:	03010113          	addi	sp,sp,48
    1cb8:	00008067          	ret

00001cbc <drawRectangle>:
    1cbc:	fc010113          	addi	sp,sp,-64
    1cc0:	02812e23          	sw	s0,60(sp)
    1cc4:	04010413          	addi	s0,sp,64
    1cc8:	fca42e23          	sw	a0,-36(s0)
    1ccc:	fcb42c23          	sw	a1,-40(s0)
    1cd0:	fcc42a23          	sw	a2,-44(s0)
    1cd4:	fcd42823          	sw	a3,-48(s0)
    1cd8:	00070793          	mv	a5,a4
    1cdc:	fcf407a3          	sb	a5,-49(s0)
    1ce0:	fd842783          	lw	a5,-40(s0)
    1ce4:	fef42623          	sw	a5,-20(s0)
    1ce8:	06c0006f          	j	1d54 <drawRectangle+0x98>
    1cec:	fdc42783          	lw	a5,-36(s0)
    1cf0:	fef42423          	sw	a5,-24(s0)
    1cf4:	0400006f          	j	1d34 <drawRectangle+0x78>
    1cf8:	000027b7          	lui	a5,0x2
    1cfc:	32c7a783          	lw	a5,812(a5) # 232c <frame>
    1d00:	00002737          	lui	a4,0x2
    1d04:	33875703          	lhu	a4,824(a4) # 2338 <SCREEN_WIDTH>
    1d08:	00070693          	mv	a3,a4
    1d0c:	fec42703          	lw	a4,-20(s0)
    1d10:	02e686b3          	mul	a3,a3,a4
    1d14:	fe842703          	lw	a4,-24(s0)
    1d18:	00e68733          	add	a4,a3,a4
    1d1c:	00e787b3          	add	a5,a5,a4
    1d20:	fcf44703          	lbu	a4,-49(s0)
    1d24:	00e78023          	sb	a4,0(a5)
    1d28:	fe842783          	lw	a5,-24(s0)
    1d2c:	00178793          	addi	a5,a5,1
    1d30:	fef42423          	sw	a5,-24(s0)
    1d34:	fdc42703          	lw	a4,-36(s0)
    1d38:	fd442783          	lw	a5,-44(s0)
    1d3c:	00f707b3          	add	a5,a4,a5
    1d40:	fe842703          	lw	a4,-24(s0)
    1d44:	faf74ae3          	blt	a4,a5,1cf8 <drawRectangle+0x3c>
    1d48:	fec42783          	lw	a5,-20(s0)
    1d4c:	00178793          	addi	a5,a5,1
    1d50:	fef42623          	sw	a5,-20(s0)
    1d54:	fd842703          	lw	a4,-40(s0)
    1d58:	fd042783          	lw	a5,-48(s0)
    1d5c:	00f707b3          	add	a5,a4,a5
    1d60:	fec42703          	lw	a4,-20(s0)
    1d64:	f8f744e3          	blt	a4,a5,1cec <drawRectangle+0x30>
    1d68:	00000013          	nop
    1d6c:	00000013          	nop
    1d70:	03c12403          	lw	s0,60(sp)
    1d74:	04010113          	addi	sp,sp,64
    1d78:	00008067          	ret

00001d7c <clearBuffer>:
    1d7c:	fe010113          	addi	sp,sp,-32
    1d80:	00812e23          	sw	s0,28(sp)
    1d84:	02010413          	addi	s0,sp,32
    1d88:	fe042623          	sw	zero,-20(s0)
    1d8c:	0240006f          	j	1db0 <clearBuffer+0x34>
    1d90:	000027b7          	lui	a5,0x2
    1d94:	32c7a703          	lw	a4,812(a5) # 232c <frame>
    1d98:	fec42783          	lw	a5,-20(s0)
    1d9c:	00f707b3          	add	a5,a4,a5
    1da0:	00078023          	sb	zero,0(a5)
    1da4:	fec42783          	lw	a5,-20(s0)
    1da8:	00178793          	addi	a5,a5,1
    1dac:	fef42623          	sw	a5,-20(s0)
    1db0:	000027b7          	lui	a5,0x2
    1db4:	33a7d783          	lhu	a5,826(a5) # 233a <SCREEN_HEIGHT>
    1db8:	00078713          	mv	a4,a5
    1dbc:	000027b7          	lui	a5,0x2
    1dc0:	3387d783          	lhu	a5,824(a5) # 2338 <SCREEN_WIDTH>
    1dc4:	02f707b3          	mul	a5,a4,a5
    1dc8:	fec42703          	lw	a4,-20(s0)
    1dcc:	fcf742e3          	blt	a4,a5,1d90 <clearBuffer+0x14>
    1dd0:	00000013          	nop
    1dd4:	00000013          	nop
    1dd8:	01c12403          	lw	s0,28(sp)
    1ddc:	02010113          	addi	sp,sp,32
    1de0:	00008067          	ret

00001de4 <frameBuffer>:
    1de4:	ff010113          	addi	sp,sp,-16
    1de8:	00812623          	sw	s0,12(sp)
    1dec:	01010413          	addi	s0,sp,16
    1df0:	000027b7          	lui	a5,0x2
    1df4:	32c7a703          	lw	a4,812(a5) # 232c <frame>
    1df8:	000027b7          	lui	a5,0x2
    1dfc:	3307a783          	lw	a5,816(a5) # 2330 <DMA_Control>
    1e00:	00478793          	addi	a5,a5,4
    1e04:	00e7a023          	sw	a4,0(a5)
    1e08:	000027b7          	lui	a5,0x2
    1e0c:	3307a783          	lw	a5,816(a5) # 2330 <DMA_Control>
    1e10:	0007a023          	sw	zero,0(a5)
    1e14:	00000013          	nop
    1e18:	00c12403          	lw	s0,12(sp)
    1e1c:	01010113          	addi	sp,sp,16
    1e20:	00008067          	ret

00001e24 <stringLength>:
    1e24:	fd010113          	addi	sp,sp,-48
    1e28:	02812623          	sw	s0,44(sp)
    1e2c:	03010413          	addi	s0,sp,48
    1e30:	fca42e23          	sw	a0,-36(s0)
    1e34:	fe042623          	sw	zero,-20(s0)
    1e38:	0100006f          	j	1e48 <stringLength+0x24>
    1e3c:	fec42783          	lw	a5,-20(s0)
    1e40:	00178793          	addi	a5,a5,1
    1e44:	fef42623          	sw	a5,-20(s0)
    1e48:	fec42783          	lw	a5,-20(s0)
    1e4c:	fdc42703          	lw	a4,-36(s0)
    1e50:	00f707b3          	add	a5,a4,a5
    1e54:	0007c783          	lbu	a5,0(a5)
    1e58:	fe0792e3          	bnez	a5,1e3c <stringLength+0x18>
    1e5c:	fec42783          	lw	a5,-20(s0)
    1e60:	00078513          	mv	a0,a5
    1e64:	02c12403          	lw	s0,44(sp)
    1e68:	03010113          	addi	sp,sp,48
    1e6c:	00008067          	ret

Disassembly of section .data:

00001e70 <welcome_msg>:
    1e70:	3d3d                	.insn	2, 0x3d3d
    1e72:	3d3d                	.insn	2, 0x3d3d
    1e74:	3d3d                	.insn	2, 0x3d3d
    1e76:	3d3d                	.insn	2, 0x3d3d
    1e78:	3d3d                	.insn	2, 0x3d3d
    1e7a:	3d3d                	.insn	2, 0x3d3d
    1e7c:	3d3d                	.insn	2, 0x3d3d
    1e7e:	3d3d                	.insn	2, 0x3d3d
    1e80:	3d3d                	.insn	2, 0x3d3d
    1e82:	3d3d                	.insn	2, 0x3d3d
    1e84:	3d3d                	.insn	2, 0x3d3d
    1e86:	3d3d                	.insn	2, 0x3d3d
    1e88:	3d3d                	.insn	2, 0x3d3d
    1e8a:	3d3d                	.insn	2, 0x3d3d
    1e8c:	3d3d                	.insn	2, 0x3d3d
    1e8e:	3d3d                	.insn	2, 0x3d3d
    1e90:	3d3d                	.insn	2, 0x3d3d
    1e92:	3d3d                	.insn	2, 0x3d3d
    1e94:	3d3d                	.insn	2, 0x3d3d
    1e96:	3d3d                	.insn	2, 0x3d3d
    1e98:	3d3d                	.insn	2, 0x3d3d
    1e9a:	3d3d                	.insn	2, 0x3d3d
    1e9c:	3d3d                	.insn	2, 0x3d3d
    1e9e:	3d3d                	.insn	2, 0x3d3d
    1ea0:	3d0a                	.insn	2, 0x3d0a
    1ea2:	3d3d                	.insn	2, 0x3d3d
    1ea4:	3d3d                	.insn	2, 0x3d3d
    1ea6:	5220                	.insn	2, 0x5220
    1ea8:	5349                	.insn	2, 0x5349
    1eaa:	20562d43          	.insn	4, 0x20562d43
    1eae:	6f42                	.insn	2, 0x6f42
    1eb0:	552d746f          	jal	s0,d9402 <__global_pointer+0xd68da>
    1eb4:	2070                	.insn	2, 0x2070
    1eb6:	7250                	.insn	2, 0x7250
    1eb8:	7365636f          	jal	t1,585ee <__global_pointer+0x55ac6>
    1ebc:	6f4e2073          	csrs	0x6f4,t3
    1ec0:	6f432077          	.insn	4, 0x6f432077
    1ec4:	706d                	.insn	2, 0x706d
    1ec6:	656c                	.insn	2, 0x656c
    1ec8:	6574                	.insn	2, 0x6574
    1eca:	3d20                	.insn	2, 0x3d20
    1ecc:	3d3d                	.insn	2, 0x3d3d
    1ece:	3d3d                	.insn	2, 0x3d3d
    1ed0:	0a3d                	.insn	2, 0x0a3d
    1ed2:	3d3d                	.insn	2, 0x3d3d
    1ed4:	3d3d                	.insn	2, 0x3d3d
    1ed6:	3d3d                	.insn	2, 0x3d3d
    1ed8:	3d3d                	.insn	2, 0x3d3d
    1eda:	3d3d                	.insn	2, 0x3d3d
    1edc:	3d3d                	.insn	2, 0x3d3d
    1ede:	3d3d                	.insn	2, 0x3d3d
    1ee0:	3d3d                	.insn	2, 0x3d3d
    1ee2:	3d3d                	.insn	2, 0x3d3d
    1ee4:	3d3d                	.insn	2, 0x3d3d
    1ee6:	3d3d                	.insn	2, 0x3d3d
    1ee8:	3d3d                	.insn	2, 0x3d3d
    1eea:	3d3d                	.insn	2, 0x3d3d
    1eec:	3d3d                	.insn	2, 0x3d3d
    1eee:	3d3d                	.insn	2, 0x3d3d
    1ef0:	3d3d                	.insn	2, 0x3d3d
    1ef2:	3d3d                	.insn	2, 0x3d3d
    1ef4:	3d3d                	.insn	2, 0x3d3d
    1ef6:	3d3d                	.insn	2, 0x3d3d
    1ef8:	3d3d                	.insn	2, 0x3d3d
    1efa:	3d3d                	.insn	2, 0x3d3d
    1efc:	3d3d                	.insn	2, 0x3d3d
    1efe:	3d3d                	.insn	2, 0x3d3d
    1f00:	3d3d                	.insn	2, 0x3d3d
    1f02:	000a                	.insn	2, 0x000a

00001f04 <mytime>:
    1f04:	00005957          	.insn	4, 0x5957

00001f08 <timstr>:
    1f08:	6574                	.insn	2, 0x6574
    1f0a:	7478                	.insn	2, 0x7478
    1f0c:	6d20                	.insn	2, 0x6d20
    1f0e:	2065726f          	jal	tp,59114 <__global_pointer+0x565ec>
    1f12:	6574                	.insn	2, 0x6574
    1f14:	7478                	.insn	2, 0x7478
    1f16:	6c20                	.insn	2, 0x6c20
    1f18:	2073746f          	jal	s0,3991e <__global_pointer+0x36df6>
    1f1c:	7420666f          	jal	a2,865e <__global_pointer+0x5b36>
    1f20:	7865                	.insn	2, 0x7865
    1f22:	0074                	.insn	2, 0x0074
    1f24:	0000                	.insn	2, 0x
	...

00001f28 <font8x8_basic>:
	...
    2030:	3c18                	.insn	2, 0x3c18
    2032:	183c                	.insn	2, 0x183c
    2034:	0018                	.insn	2, 0x0018
    2036:	0018                	.insn	2, 0x0018
    2038:	3636                	.insn	2, 0x3636
    203a:	0000                	.insn	2, 0x
    203c:	0000                	.insn	2, 0x
    203e:	0000                	.insn	2, 0x
    2040:	3636                	.insn	2, 0x3636
    2042:	367f367f 3e0c0036 	.insn	16, 0x6300000c1f301e033e0c0036367f367f
    204a:	1f301e03 6300000c 
    2052:	660c1833          	.insn	4, 0x660c1833
    2056:	361c0063          	beq	s8,ra,23b6 <score2+0x72>
    205a:	6e1c                	.insn	2, 0x6e1c
    205c:	006e333b          	.insn	4, 0x006e333b
    2060:	0606                	.insn	2, 0x0606
    2062:	00000003          	lb	zero,0(zero) # 0 <_isr_handler>
    2066:	0000                	.insn	2, 0x
    2068:	0c18                	.insn	2, 0x0c18
    206a:	0606                	.insn	2, 0x0606
    206c:	0c06                	.insn	2, 0x0c06
    206e:	0018                	.insn	2, 0x0018
    2070:	0c06                	.insn	2, 0x0c06
    2072:	1818                	.insn	2, 0x1818
    2074:	0c18                	.insn	2, 0x0c18
    2076:	0006                	.insn	2, 0x0006
    2078:	6600                	.insn	2, 0x6600
    207a:	ff3c                	.insn	2, 0xff3c
    207c:	663c                	.insn	2, 0x663c
    207e:	0000                	.insn	2, 0x
    2080:	0c00                	.insn	2, 0x0c00
    2082:	3f0c                	.insn	2, 0x3f0c
    2084:	0c0c                	.insn	2, 0x0c0c
    2086:	0000                	.insn	2, 0x
    2088:	0000                	.insn	2, 0x
    208a:	0000                	.insn	2, 0x
    208c:	0c00                	.insn	2, 0x0c00
    208e:	060c                	.insn	2, 0x060c
    2090:	0000                	.insn	2, 0x
    2092:	3f00                	.insn	2, 0x3f00
	...
    209c:	0c00                	.insn	2, 0x0c00
    209e:	000c                	.insn	2, 0x000c
    20a0:	3060                	.insn	2, 0x3060
    20a2:	0c18                	.insn	2, 0x0c18
    20a4:	0306                	.insn	2, 0x0306
    20a6:	0001                	.insn	2, 0x0001
    20a8:	633e                	.insn	2, 0x633e
    20aa:	676f7b73          	csrrci	s6,0x676,30
    20ae:	003e                	.insn	2, 0x003e
    20b0:	0e0c                	.insn	2, 0x0e0c
    20b2:	0c0c                	.insn	2, 0x0c0c
    20b4:	0c0c                	.insn	2, 0x0c0c
    20b6:	331e003f 33061c30 	.insn	8, 0x33061c30331e003f
    20be:	331e003f 33301c30 	.insn	8, 0x33301c30331e003f
    20c6:	001e                	.insn	2, 0x001e
    20c8:	3c38                	.insn	2, 0x3c38
    20ca:	3336                	.insn	2, 0x3336
    20cc:	0078307f 301f033f 	.insn	16, 0x1f03061c001e3330301f033f0078307f
    20d4:	001e3330 1f03061c 
    20dc:	001e3333          	sltu	t1,t3,ra
    20e0:	1830333f 000c0c0c 	.insn	8, 0x000c0c0c1830333f
    20e8:	331e                	.insn	2, 0x331e
    20ea:	33331e33          	.insn	4, 0x33331e33
    20ee:	001e                	.insn	2, 0x001e
    20f0:	331e                	.insn	2, 0x331e
    20f2:	18303e33          	.insn	4, 0x18303e33
    20f6:	000e                	.insn	2, 0x000e
    20f8:	0c00                	.insn	2, 0x0c00
    20fa:	000c                	.insn	2, 0x000c
    20fc:	0c00                	.insn	2, 0x0c00
    20fe:	000c                	.insn	2, 0x000c
    2100:	0c00                	.insn	2, 0x0c00
    2102:	000c                	.insn	2, 0x000c
    2104:	0c00                	.insn	2, 0x0c00
    2106:	060c                	.insn	2, 0x060c
    2108:	0c18                	.insn	2, 0x0c18
    210a:	0306                	.insn	2, 0x0306
    210c:	0c06                	.insn	2, 0x0c06
    210e:	0018                	.insn	2, 0x0018
    2110:	0000                	.insn	2, 0x
    2112:	3f00003f 0c060000 	.insn	8, 0x0c0600003f00003f
    211a:	3018                	.insn	2, 0x3018
    211c:	0c18                	.insn	2, 0x0c18
    211e:	0006                	.insn	2, 0x0006
    2120:	331e                	.insn	2, 0x331e
    2122:	1830                	.insn	2, 0x1830
    2124:	000c                	.insn	2, 0x000c
    2126:	000c                	.insn	2, 0x000c
    2128:	633e                	.insn	2, 0x633e
    212a:	037b7b7b          	.insn	4, 0x037b7b7b
    212e:	001e                	.insn	2, 0x001e
    2130:	1e0c                	.insn	2, 0x1e0c
    2132:	333f3333          	.insn	4, 0x333f3333
    2136:	663f0033          	.insn	4, 0x663f0033
    213a:	3e66                	.insn	2, 0x3e66
    213c:	6666                	.insn	2, 0x6666
    213e:	663c003f 66030303 	.insn	8, 0x66030303663c003f
    2146:	003c                	.insn	2, 0x003c
    2148:	361f 6666 3666      	.insn	6, 0x36666666361f
    214e:	001f 467f 1e16      	.insn	6, 0x1e16467f001f
    2154:	4616                	.insn	2, 0x4616
    2156:	007f 467f 1e16 0616 	.insn	10, 0x000f06161e16467f007f
    215e:	000f 
    2160:	663c                	.insn	2, 0x663c
    2162:	66730303          	lb	t1,1639(t1)
    2166:	007c                	.insn	2, 0x007c
    2168:	3f333333          	.insn	4, 0x3f333333
    216c:	00333333          	sltu	t1,t1,gp
    2170:	0c1e                	.insn	2, 0x0c1e
    2172:	0c0c                	.insn	2, 0x0c0c
    2174:	0c0c                	.insn	2, 0x0c0c
    2176:	001e                	.insn	2, 0x001e
    2178:	3078                	.insn	2, 0x3078
    217a:	3030                	.insn	2, 0x3030
    217c:	001e3333          	sltu	t1,t3,ra
    2180:	1e366667          	.insn	4, 0x1e366667
    2184:	6636                	.insn	2, 0x6636
    2186:	060f0067          	jr	96(t5)
    218a:	0606                	.insn	2, 0x0606
    218c:	6646                	.insn	2, 0x6646
    218e:	007f 7763 7f7f 636b 	.insn	10, 0x0063636b7f7f7763007f
    2196:	0063 
    2198:	7b6f6763          	bltu	t5,s6,2946 <score2+0x602>
    219c:	00636373          	csrrsi	t1,0x6,6
    21a0:	361c                	.insn	2, 0x361c
    21a2:	36636363          	bltu	t1,t1,2508 <score2+0x1c4>
    21a6:	001c                	.insn	2, 0x001c
    21a8:	3e66663f 000f0606 	.insn	8, 0x000f06063e66663f
    21b0:	331e                	.insn	2, 0x331e
    21b2:	1e3b3333          	.insn	4, 0x1e3b3333
    21b6:	0038                	.insn	2, 0x0038
    21b8:	3e66663f 00676636 	.insn	8, 0x006766363e66663f
    21c0:	331e                	.insn	2, 0x331e
    21c2:	33380e07          	.insn	4, 0x33380e07
    21c6:	001e                	.insn	2, 0x001e
    21c8:	0c0c2d3f 001e0c0c 	.insn	8, 0x001e0c0c0c0c2d3f
    21d0:	33333333          	.insn	4, 0x33333333
    21d4:	003f3333          	sltu	t1,t5,gp
    21d8:	33333333          	.insn	4, 0x33333333
    21dc:	000c1e33          	sll	t3,s8,zero
    21e0:	6b636363          	bltu	t1,s6,2886 <score2+0x542>
    21e4:	777f                	.insn	2, 0x777f
    21e6:	63630063          	beq	t1,s6,2806 <score2+0x4c2>
    21ea:	1c36                	.insn	2, 0x1c36
    21ec:	361c                	.insn	2, 0x361c
    21ee:	33330063          	beq	t1,s3,250e <score2+0x1ca>
    21f2:	0c0c1e33          	.insn	4, 0x0c0c1e33
    21f6:	001e                	.insn	2, 0x001e
    21f8:	637f 1831 664c 007f 	.insn	22, 0x6030180c0603001e06060606061e007f664c1831637f
    2200:	061e 0606 0606 001e 
    2208:	0603 180c 6030 
    220e:	0040                	.insn	2, 0x0040
    2210:	181e                	.insn	2, 0x181e
    2212:	1818                	.insn	2, 0x1818
    2214:	1818                	.insn	2, 0x1818
    2216:	001e                	.insn	2, 0x001e
    2218:	1c08                	.insn	2, 0x1c08
    221a:	6336                	.insn	2, 0x6336
	...
    2224:	0000                	.insn	2, 0x
    2226:	ff00                	.insn	2, 0xff00
    2228:	0c0c                	.insn	2, 0x0c0c
    222a:	0018                	.insn	2, 0x0018
    222c:	0000                	.insn	2, 0x
    222e:	0000                	.insn	2, 0x
    2230:	0000                	.insn	2, 0x
    2232:	301e                	.insn	2, 0x301e
    2234:	333e                	.insn	2, 0x333e
    2236:	006e                	.insn	2, 0x006e
    2238:	3e060607          	.insn	4, 0x3e060607
    223c:	6666                	.insn	2, 0x6666
    223e:	0000003b          	.insn	4, 0x003b
    2242:	331e                	.insn	2, 0x331e
    2244:	001e3303          	.insn	4, 0x001e3303
    2248:	3038                	.insn	2, 0x3038
    224a:	3e30                	.insn	2, 0x3e30
    224c:	006e3333          	sltu	t1,t3,t1
    2250:	0000                	.insn	2, 0x
    2252:	331e                	.insn	2, 0x331e
    2254:	001e033f 0f06361c 	.insn	8, 0x0f06361c001e033f
    225c:	0606                	.insn	2, 0x0606
    225e:	0000000f          	fence	unknown,unknown
    2262:	336e                	.insn	2, 0x336e
    2264:	1f303e33          	.insn	4, 0x1f303e33
    2268:	6e360607          	.insn	4, 0x6e360607
    226c:	6666                	.insn	2, 0x6666
    226e:	000c0067          	jr	s8
    2272:	0c0e                	.insn	2, 0x0c0e
    2274:	0c0c                	.insn	2, 0x0c0c
    2276:	001e                	.insn	2, 0x001e
    2278:	0030                	.insn	2, 0x0030
    227a:	3030                	.insn	2, 0x3030
    227c:	3330                	.insn	2, 0x3330
    227e:	06071e33          	.insn	4, 0x06071e33
    2282:	3666                	.insn	2, 0x3666
    2284:	361e                	.insn	2, 0x361e
    2286:	0c0e0067          	jr	192(t3)
    228a:	0c0c                	.insn	2, 0x0c0c
    228c:	0c0c                	.insn	2, 0x0c0c
    228e:	001e                	.insn	2, 0x001e
    2290:	0000                	.insn	2, 0x
    2292:	6b7f7f33          	.insn	4, 0x6b7f7f33
    2296:	00000063          	beqz	zero,2296 <font8x8_basic+0x36e>
    229a:	331f 3333 0033      	.insn	6, 0x00333333331f
    22a0:	0000                	.insn	2, 0x
    22a2:	331e                	.insn	2, 0x331e
    22a4:	001e3333          	sltu	t1,t3,ra
    22a8:	0000                	.insn	2, 0x
    22aa:	3e66663b          	.insn	4, 0x3e66663b
    22ae:	0f06                	.insn	2, 0x0f06
    22b0:	0000                	.insn	2, 0x
    22b2:	336e                	.insn	2, 0x336e
    22b4:	78303e33          	.insn	4, 0x78303e33
    22b8:	0000                	.insn	2, 0x
    22ba:	06666e3b          	.insn	4, 0x06666e3b
    22be:	0000000f          	fence	unknown,unknown
    22c2:	033e                	.insn	2, 0x033e
    22c4:	301e                	.insn	2, 0x301e
    22c6:	001f 0c08 0c3e      	.insn	6, 0x0c3e0c08001f
    22cc:	2c0c                	.insn	2, 0x2c0c
    22ce:	0018                	.insn	2, 0x0018
    22d0:	0000                	.insn	2, 0x
    22d2:	33333333          	.insn	4, 0x33333333
    22d6:	006e                	.insn	2, 0x006e
    22d8:	0000                	.insn	2, 0x
    22da:	1e333333          	.insn	4, 0x1e333333
    22de:	000c                	.insn	2, 0x000c
    22e0:	0000                	.insn	2, 0x
    22e2:	7f7f6b63          	bltu	t5,s7,2ad8 <score2+0x794>
    22e6:	0036                	.insn	2, 0x0036
    22e8:	0000                	.insn	2, 0x
    22ea:	361c3663          	.insn	4, 0x361c3663
    22ee:	00000063          	beqz	zero,22ee <font8x8_basic+0x3c6>
    22f2:	3e333333          	.insn	4, 0x3e333333
    22f6:	1f30                	.insn	2, 0x1f30
    22f8:	0000                	.insn	2, 0x
    22fa:	260c193f 0c38003f 	.insn	8, 0x0c38003f260c193f
    2302:	070c                	.insn	2, 0x070c
    2304:	0c0c                	.insn	2, 0x0c0c
    2306:	0038                	.insn	2, 0x0038
    2308:	1818                	.insn	2, 0x1818
    230a:	0018                	.insn	2, 0x0018
    230c:	1818                	.insn	2, 0x1818
    230e:	0018                	.insn	2, 0x0018
    2310:	380c0c07          	.insn	4, 0x380c0c07
    2314:	0c0c                	.insn	2, 0x0c0c
    2316:	3b6e0007          	.insn	4, 0x3b6e0007
	...

00002328 <prints>:
    2328:	0001                	.insn	2, 0x0001
	...

0000232c <frame>:
    232c:	0000                	.insn	2, 0x
    232e:	0800                	.insn	2, 0x0800

00002330 <DMA_Control>:
    2330:	0100                	.insn	2, 0x0100
    2332:	0400                	.insn	2, 0x0400

00002334 <running>:
    2334:	                	.insn	2, 0x0101

00002335 <inMenu>:
    2335:	                	.insn	2, 0x0101

00002336 <nextFrame>:
    2336:	Address 0x2336 is out of bounds.


Disassembly of section .rodata:

00002348 <.rodata>:
    2348:	5b0a                	.insn	2, 0x5b0a
    234a:	5845                	.insn	2, 0x5845
    234c:	54504543          	.insn	4, 0x54504543
    2350:	4f49                	.insn	2, 0x4f49
    2352:	5d4e                	.insn	2, 0x5d4e
    2354:	4920                	.insn	2, 0x4920
    2356:	736e                	.insn	2, 0x736e
    2358:	7274                	.insn	2, 0x7274
    235a:	6375                	.insn	2, 0x6375
    235c:	6974                	.insn	2, 0x6974
    235e:	61206e6f          	jal	t3,8970 <__global_pointer+0x5e48>
    2362:	6464                	.insn	2, 0x6464
    2364:	6572                	.insn	2, 0x6572
    2366:	6d207373          	csrrci	t1,0x6d2,0
    236a:	7369                	.insn	2, 0x7369
    236c:	6c61                	.insn	2, 0x6c61
    236e:	6769                	.insn	2, 0x6769
    2370:	6d6e                	.insn	2, 0x6d6e
    2372:	6e65                	.insn	2, 0x6e65
    2374:	2e74                	.insn	2, 0x2e74
    2376:	0020                	.insn	2, 0x0020
    2378:	5b0a                	.insn	2, 0x5b0a
    237a:	5845                	.insn	2, 0x5845
    237c:	54504543          	.insn	4, 0x54504543
    2380:	4f49                	.insn	2, 0x4f49
    2382:	5d4e                	.insn	2, 0x5d4e
    2384:	4920                	.insn	2, 0x4920
    2386:	6c6c                	.insn	2, 0x6c6c
    2388:	6765                	.insn	2, 0x6765
    238a:	6c61                	.insn	2, 0x6c61
    238c:	6920                	.insn	2, 0x6920
    238e:	736e                	.insn	2, 0x736e
    2390:	7274                	.insn	2, 0x7274
    2392:	6375                	.insn	2, 0x6375
    2394:	6974                	.insn	2, 0x6974
    2396:	202e6e6f          	jal	t3,e8598 <__global_pointer+0xe5a70>
    239a:	0000                	.insn	2, 0x
    239c:	5b0a                	.insn	2, 0x5b0a
    239e:	5845                	.insn	2, 0x5845
    23a0:	54504543          	.insn	4, 0x54504543
    23a4:	4f49                	.insn	2, 0x4f49
    23a6:	5d4e                	.insn	2, 0x5d4e
    23a8:	5520                	.insn	2, 0x5520
    23aa:	6b6e                	.insn	2, 0x6b6e
    23ac:	6f6e                	.insn	2, 0x6f6e
    23ae:	65206e77          	.insn	4, 0x65206e77
    23b2:	7272                	.insn	2, 0x7272
    23b4:	202e726f          	jal	tp,e95b6 <__global_pointer+0xe6a8e>
    23b8:	0000                	.insn	2, 0x
    23ba:	0000                	.insn	2, 0x
    23bc:	7845                	.insn	2, 0x7845
    23be:	74706563          	bltu	zero,t2,2b08 <score2+0x7c4>
    23c2:	6f69                	.insn	2, 0x6f69
    23c4:	206e                	.insn	2, 0x206e
    23c6:	6441                	.insn	2, 0x6441
    23c8:	7264                	.insn	2, 0x7264
    23ca:	7365                	.insn	2, 0x7365
    23cc:	00203a73          	csrrc	s4,frm,zero
    23d0:	000a                	.insn	2, 0x000a
    23d2:	0000                	.insn	2, 0x
    23d4:	4c50                	.insn	2, 0x4c50
    23d6:	5941                	.insn	2, 0x5941
    23d8:	5245                	.insn	2, 0x5245
    23da:	3120                	.insn	2, 0x3120
    23dc:	5720                	.insn	2, 0x5720
    23de:	4e49                	.insn	2, 0x4e49
    23e0:	00002153          	.insn	4, 0x2153
    23e4:	4c50                	.insn	2, 0x4c50
    23e6:	5941                	.insn	2, 0x5941
    23e8:	5245                	.insn	2, 0x5245
    23ea:	3220                	.insn	2, 0x3220
    23ec:	5720                	.insn	2, 0x5720
    23ee:	4e49                	.insn	2, 0x4e49
    23f0:	00002153          	.insn	4, 0x2153
    23f4:	4c50                	.insn	2, 0x4c50
    23f6:	5941                	.insn	2, 0x5941
    23f8:	5245                	.insn	2, 0x5245
    23fa:	5620                	.insn	2, 0x5620
    23fc:	4c502053          	.insn	4, 0x4c502053
    2400:	5941                	.insn	2, 0x5941
    2402:	5245                	.insn	2, 0x5245
    2404:	0000                	.insn	2, 0x
    2406:	0000                	.insn	2, 0x
    2408:	4c50                	.insn	2, 0x4c50
    240a:	5941                	.insn	2, 0x5941
    240c:	5245                	.insn	2, 0x5245
    240e:	5620                	.insn	2, 0x5620
    2410:	50432053          	.insn	4, 0x50432053
    2414:	0055                	.insn	2, 0x0055
    2416:	0000                	.insn	2, 0x
    2418:	1a80                	.insn	2, 0x1a80
    241a:	0000                	.insn	2, 0x
    241c:	1a90                	.insn	2, 0x1a90
    241e:	0000                	.insn	2, 0x
    2420:	1aa0                	.insn	2, 0x1aa0
    2422:	0000                	.insn	2, 0x
    2424:	1ab0                	.insn	2, 0x1ab0
    2426:	0000                	.insn	2, 0x
    2428:	1ac0                	.insn	2, 0x1ac0
    242a:	0000                	.insn	2, 0x
    242c:	1ad0                	.insn	2, 0x1ad0
    242e:	0000                	.insn	2, 0x
    2430:	1ae0                	.insn	2, 0x1ae0
    2432:	0000                	.insn	2, 0x
    2434:	1af0                	.insn	2, 0x1af0
    2436:	0000                	.insn	2, 0x
    2438:	1b00                	.insn	2, 0x1b00
    243a:	0000                	.insn	2, 0x
    243c:	1b10                	.insn	2, 0x1b10
    243e:	0000                	.insn	2, 0x
    2440:	1b1c                	.insn	2, 0x1b1c
	...

Disassembly of section .comment:

00000000 <.comment>:
   0:	3a434347          	.insn	4, 0x3a434347
   4:	2820                	.insn	2, 0x2820
   6:	2029                	.insn	2, 0x2029
   8:	3331                	.insn	2, 0x3331
   a:	322e                	.insn	2, 0x322e
   c:	302e                	.insn	2, 0x302e
	...

Disassembly of section .riscv.attributes:

00000000 <.riscv.attributes>:
   0:	3641                	.insn	2, 0x3641
   2:	0000                	.insn	2, 0x
   4:	7200                	.insn	2, 0x7200
   6:	7369                	.insn	2, 0x7369
   8:	01007663          	bgeu	zero,a6,14 <_isr_routine+0xc>
   c:	002c                	.insn	2, 0x002c
   e:	0000                	.insn	2, 0x
  10:	1004                	.insn	2, 0x1004
  12:	7205                	.insn	2, 0x7205
  14:	3376                	.insn	2, 0x3376
  16:	6932                	.insn	2, 0x6932
  18:	7032                	.insn	2, 0x7032
  1a:	5f31                	.insn	2, 0x5f31
  1c:	326d                	.insn	2, 0x326d
  1e:	3070                	.insn	2, 0x3070
  20:	7a5f 6369 7273      	.insn	6, 0x727363697a5f
  26:	7032                	.insn	2, 0x7032
  28:	5f30                	.insn	2, 0x5f30
  2a:	6d7a                	.insn	2, 0x6d7a
  2c:	756d                	.insn	2, 0x756d
  2e:	316c                	.insn	2, 0x316c
  30:	3070                	.insn	2, 0x3070
  32:	0800                	.insn	2, 0x0800
  34:	0a01                	.insn	2, 0x0a01
  36:	Address 0x36 is out of bounds.

